(lp0
Vhttp://3.bp.blogspot.com/-nVqiULJXkCA/TuUhFakKXfI/AAAAAAAACxA/3AT4olBDWwU/s1600/Screenshot%2Bat%2B2011-12-11%2B23%253A19%253A08.png
p1
aVhttp://7.mshcdn.com/wp-content/uploads/2012/01/internet-distractions-360.jpg
p2
aVhttp://i2.ytimg.com/vi/1zmB4W4mzuc/hqdefault.jpg
p3
aVhttp://i2.ytimg.com/vi/QrKnhOJ-R80/hqdefault.jpg
p4
aVhttp://i3.ytimg.com/vi/b6VTsuoBk3M/hqdefault.jpg
p5
aVhttp://i3.ytimg.com/vi/FE_T-QI-JOw/hqdefault.jpg
p6
aVhttp://i3.ytimg.com/vi/NmxX2r-uD8I/hqdefault.jpg
p7
aVhttp://i1.ytimg.com/vi/ppAn0LNU_V8/hqdefault.jpg
p8
aVhttp://effbot.org/media/cache/1e3c64534456259b6943892679ff188c.jpg
p9
aVhttp://www.willmcgugan.com/media/uploads/images/thumbs/thumbs_265x219.jpg
p10
aVhttp://0.gravatar.com/blavatar/488efa50a3512ade2d4fd7910a778a2c?s=300
p11
aVhttp://upload.wikimedia.org/wikipedia/commons/thumb/9/93/Cache%2Cassociative-fill-both.png/450px-Cache%2Cassociative-fill-both.png
p12
aVhttp://saltycrane.s3.amazonaws.com/image/saltycrane_4.png
p13
aVhttp://static.thegeekstuff.com/wp-content/themes/thesis_18/custom/images/thegeekstuff.gif
p14
aVhttp://www.siafoo.net/img/siafoo_r1.png
p15
aVhttp://kindlefeeder.com/images/kindle-screen0sm.gif
p16
aVhttp://www.inc.com/uploaded_files/image/flickr-4499963311-hd_White_Rabbit_Alice_in_Wonderland_bucket_12764.jpg
p17
aVhttp://i3.ytimg.com/vi/ROBwH-cDu08/hqdefault.jpg
p18
aVhttp://i3.ytimg.com/vi/2iTxSl70fJU/hqdefault.jpg
p19
aVhttp://tctechcrunch2011.files.wordpress.com/2012/01/talent.jpg?w=150
p20
aVhttp://www.inc.com/uploaded_files/image/executive_summary_bkt_5294.jpg
p21
aVhttp://blog.guykawasaki.com/iStock_000000273430Small-tm.jpg
p22
aVhttp://i1.ytimg.com/vi/HoRjvYzqdrQ/hqdefault.jpg
p23
aVhttp://9.mshcdn.com/wp-content/uploads/2011/06/projector-360.jpg
p24
aVhttp://gigaom2.files.wordpress.com/2012/01/fab-com-ipad-e1326309586843.png?w=604
p25
aVhttps://static-secure.guim.co.uk/sys-images/Guardian/Pix/pictures/2012/1/9/1326115562429/Dinner-date-004.jpg
p26
aVhttp://www.entrepreneur.com/dbimages/video/h1/video-fashion-startup-goes-viral.jpg
p27
aVhttp://i3.ytimg.com/vi/FktNzLg_te4/hqdefault.jpg
p28
aVhttp://www.ebook-converter.com/blog/wp-content/themes/ebookconverter/images/PostDateIcon.png
p29
aVhttp://www.luxurydaily.com/wp-content/uploads/2010/12/consumer.jpg
p30
aVhttp://www.armanacar.com/wp-content/uploads/2011/09/janeDoe.jpg
p31
aVhttp://www.safelivingtechnologies.ca/images/SLT_Header_New.gif
p32
aVhttp://seldo.com/s/seldo.jpg
p33
aVhttp://s1.wp.com/wp-content/themes/pub/coraline/images/headers/water-drops.jpg?m=1300801993g
p34
aVhttp://www.mariashriver.com/sites/default/files/Woods-shot-590.jpg
p35
aVhttp://s0.wp.com/imgpress?url=http%3A%2F%2Ftctechcrunch.files.wordpress.com%2Fsecret.jpg&resize=150,150
p36
aVhttp://www.cigdemozkan.net/wp-content/themes/huex_ozkan/img/logo.png
p37
aVhttp://27.media.tumblr.com/avatar_a0f75a2347a1_16.png
p38
aVhttp://2.bp.blogspot.com/-emFyxbeO1fQ/TzFSuV_TVtI/AAAAAAAAHgI/Ln64Eispyqk/s1600/beyinsiz-kiz-acti-zaten.jpg
p39
aVhttp://3.bp.blogspot.com/-uJNEIsg_O2I/TysEO2GqUcI/AAAAAAAAHbo/cKbeB24zOec/s1600/aksiyon-istiyorum-lan.jpg
p40
aVhttp://www.thetaoofmakingmoney.com/wp-content/uploads/images/life-and-chess.gif
p41
aVhttp://www.wired.com/images_blogs/threatlevel/2012/02/the-internet-w.jpg
p42
aVhttp://www.brainpickings.org/wp-content/uploads/2012/02/criticalthinking.jpg
p43
aVhttp://static.shiftdelete.net/img/article_intro/hasimint1328961090.jpg
p44
aVhttp://www.hurriyet.com.tr/_np/8043/15788043.jpg
p45
aVhttp://uncrunched.files.wordpress.com/2012/02/whatido.jpg?w=580
p46
aVhttp://www.inc.com/uploaded_files/image/shutterstock_9204820-336x335_14067.jpg
p47
aVhttp://community.mediabrowser.tv/uploads/site_1/2999/jquery_req.gif
p48
aVhttp://i2.ytimg.com/vi/Ivb8Rkan1sw/hqdefault.jpg
p49
aVhttp://i1.ytimg.com/vi/4tHhu-tCt5M/hqdefault.jpg
p50
aVhttp://www.tonywright.com/profile.jpg
p51
aVhttp://cdn.slidesharecdn.com/vertical-horizontal-trasversal-100507025856-phpapp01-thumbnail-2
p52
aVhttp://1.gravatar.com/avatar/d409f7e3d0b43dd41dcfbd58aa255601?s=70&d=identicon&r=R
p53
aVhttp://www.entrepreneur.com/dbimages/article/h1/six_strategies_partnering_big_brands_v2.jpg
p54
aVhttp://0.gravatar.com/avatar/2845d2f8c95c66725ebecfa0ff475e9d?s=44&d=http%3A%2F%2F0.gravatar.com%2Favatar%2Fad516503a11cd5ca435acc9bb6523536%3Fs%3D44&r=G
p55
aVhttp://www.hurriyet.com.tr/_np/0702/15980702.jpg
p56
aVhttp://i.radikal.com.tr/644x385/2012/03/03/fft5_mf930393.Jpeg
p57
aVhttp://rosenfeldmedia.com/i/ui/rosenfeld-logo.gif
p58
aVhttps://s3.amazonaws.com/lrmx/a/logo.jpg
p59
aVhttp://3.bp.blogspot.com/-pZP3QPquYDQ/T09OQvq2fmI/AAAAAAAAAYo/2Q5g97Deumo/s72-c/bayan-boxer-modelleri-02.jpg
p60
aVhttp://meme.zenfs.com/u/890d407312a3e4dc38f7c8aedb9484b2a5061ca2.gifa
p61
aVhttp://meme.zenfs.com/u/93baf0a756d16a77969826cf2849d7cbd03975c6.gifa
p62
aVhttp://meme.zenfs.com/u/6713e0111458df2c0e337635fcd3c3fe7b7f1f5f.gifa
p63
aVhttp://1.asset.soup.io/asset/2987/0817_95d7.gif
p64
aVhttp://www.hurriyet.com.tr/_np/8101/15998101.jpg
p65
aVhttp://www.hurriyet.com.tr/_np/8169/15998169.jpg
p66
aVhttp://www.hurriyet.com.tr/_np/2158/15982158.jpg
p67
aVhttp://meme.zenfs.com/u/f7bf185153ff44b110f43e1dce45afac6d4584ec.gifa
p68
aVhttp://m.friendfeed-media.com/01c0937c79728537109a86e8296e0e2d3a1b8687
p69
aVhttp://i4.ytimg.com/vi/SAIEamakLoY/hqdefault.jpg
p70
aVhttp://www.medindia.net/health-images/fitness.jpg
p71
aVhttps://lh3.googleusercontent.com/-ZXGeBHBYTp0/T1kVPkzENvI/AAAAAAAARxw/pmNM3NBl7Hw/s629/419044_10150602894529146_799204145_8832142_70339150_n.jpg
p72
aVhttp://www.webrazzi.com/wp-content/uploads/2011/09/10-hata-ana-gorsel-150x150.jpg
p73
aVhttp://uzuncorap.com/wp-content/uploads/2012/03/yaziya.jpg
p74
aVhttp://www.ekofinans.com/image.php?image=/application/static/data/166x215_anasayfa_4f159805c358a.png&width=&height=110&cropratio=
p75
aVhttp://i4.ytimg.com/vi/7KTVws3TiC0/hqdefault.jpg
p76
aVhttp://storymash.com/img/ads/amazon_kindle2.png
p77
aVhttp://uzuncorap.com/wp-content/uploads/2012/03/biz-200x300.jpg
p78
aVhttp://sstatic.net/stackoverflow/img/apple-touch-icon.png
p79
aVhttp://blogs.msdn.com/themes/MSDN2/images/MSDN/logo_msdn.png
p80
aVhttp://b.vimeocdn.com/ts/256/277/256277242_640.jpg
p81
aVhttp://i2.ytimg.com/vi/E2COJ4LwAzQ/hqdefault.jpg
p82
aVhttps://fbcdn-sphotos-a.akamaihd.net/hphotos-ak-ash4/s720x720/420660_10150592208001456_17900841455_9553192_1602246069_n.jpg
p83
aVhttps://fbcdn-sphotos-a.akamaihd.net/hphotos-ak-snc7/416976_10150582590856456_17900841455_9517862_1326055327_n.jpg
p84
aVhttps://fbcdn-sphotos-a.akamaihd.net/hphotos-ak-ash4/s720x720/424033_10150580073886456_17900841455_9510604_502486390_n.jpg
p85
aVhttps://fbcdn-sphotos-a.akamaihd.net/hphotos-ak-snc7/420878_10150566822151456_17900841455_9463663_7974941_n.jpg
p86
aVhttp://static.php.net/www.php.net/images/php.gif
p87
aVhttp://www.webresourcesdepot.com/wp-content/themes/default/images/suggest-resource-trans.png
p88
aVhttp://sstatic.net/stackoverflow/img/apple-touch-icon.png
p89
aVhttp://www.fftunes.com/assets/images/share.jpg
p90
aVhttp://ffmarket.com/images/ffmarket.png
p91
aVhttp://www.trkodlama.com/wp-content/uploads/2012/03/android.gif
p92
aVhttp://www.nature.com/polopoly_fs/7.3523.1332449076!/image/1.10294.jpg_gen/derivatives/box_118/1.10294.jpg
p93
aVhttp://img.gawkerassets.com/img/17h9uu38lg408jpg/fb.jpg
p94
aVhttp://i2.ytimg.com/vi/Aa9O5PTNct8/hqdefault.jpg
p95
aVhttp://b.vimeocdn.com/ts/265/778/265778035_640.jpg
p96
aVhttp://i2.ytimg.com/vi/i6ejPG-i03I/hqdefault.jpg
p97
aVhttp://i2.ytimg.com/vi/YE7VzlLtp-4/hqdefault.jpg
p98
aVhttp://php-gtk.eu/files/garland_logo.png
p99
aVhttp://b.vimeocdn.com/ts/354/536/35453610_640.jpg
p100
aVhttp://www.zeynepmengi.com/wp-content/uploads/2012/03/viskikulubu3.jpg
p101
aVhttp://cache.lifehacker.com/assets/images/17/2011/11/fb_7d04f14a8b41ab01c49416e89ca9f65e.jpg
p102
aVhttp://24.media.tumblr.com/tumblr_m1k5tlv2oa1ro330po1_500.jpg
p103
aVhttp://30.media.tumblr.com/tumblr_m1ar7zlSJW1qauh7ko1_500.gif
p104
aVhttp://29.media.tumblr.com/tumblr_m13e4sfnUm1qauh7ko1_500.gif
p105
aVhttp://24.media.tumblr.com/tumblr_m0z9c8Iavx1qauh7ko1_500.jpg
p106
aVhttp://s3.amazonaws.com/data.tumblr.com/tumblr_m0xfniOTHE1qauh7ko1_1280.jpg?AWSAccessKeyId=AKIAJ6IHWSU3BX3X7X3Q&Expires=1332973474&Signature=n8y2%2F2HdHWfBdMFnIreTVUL0VpY%3D
p107
aVhttp://25.media.tumblr.com/tumblr_m0sccxAA4U1qauh7ko1_500.jpg
p108
aVhttp://28.media.tumblr.com/tumblr_m06bu8Onqs1qauh7ko1_500.jpg
p109
aVhttp://27.media.tumblr.com/tumblr_m00vmcNhdO1qauh7ko1_500.jpg
p110
aVhttp://25.media.tumblr.com/tumblr_lzp71yREak1qauh7ko1_500.jpg
p111
aVhttp://30.media.tumblr.com/tumblr_lznxaiVSRg1qauh7ko1_500.jpg
p112
aVhttp://26.media.tumblr.com/tumblr_lznx8p6nWZ1qauh7ko1_500.jpg
p113
aVhttp://s3.amazonaws.com/data.tumblr.com/tumblr_lzjybuZQGN1qauh7ko1_1280.jpg?AWSAccessKeyId=AKIAJ6IHWSU3BX3X7X3Q&Expires=1332976109&Signature=sE6xvfXny%2FtnqgWhW7JdXZ4l1MI%3D
p114
aVhttp://24.media.tumblr.com/tumblr_lzclscW7dD1qauh7ko1_500.jpg
p115
aVhttp://27.media.tumblr.com/tumblr_lz8bry0JLi1qauh7ko1_500.jpg
p116
aVhttp://24.media.tumblr.com/tumblr_lz6n87oD6T1qauh7ko1_500.jpg
p117
aVhttp://s3.amazonaws.com/data.tumblr.com/tumblr_lyxxudHhYl1qauh7ko1_1280.jpg?AWSAccessKeyId=AKIAJ6IHWSU3BX3X7X3Q&Expires=1332976511&Signature=qQHCCaW%2FA74fT5NYRJukltiTqVU%3D
p118
aVhttp://26.media.tumblr.com/tumblr_lyvl6lgyWr1qauh7ko1_500.gif
p119
aVhttp://25.media.tumblr.com/tumblr_m1igl0tGsj1r1nd2yo1_500.jpg
p120
aVhttp://25.media.tumblr.com/tumblr_m1k2exfzBW1rs64too1_500.jpg
p121
aVhttp://30.media.tumblr.com/tumblr_m18gwdHAAO1qgl1wgo1_500.png
p122
aVhttp://30.media.tumblr.com/tumblr_m1734d3nEm1rreg9so1_400.gif
p123
aVhttp://29.media.tumblr.com/tumblr_m0ztj6QwII1qifmkto1_r2_500.gif
p124
aVhttp://browserquest.mozilla.org/img/common/promo-title.jpg
p125
aVhttp://i.imgur.com/rhXh5.jpg
p126
aVhttp://i3.ytimg.com/vi/z8k8xzXfhKg/hqdefault.jpg
p127
aVhttp://img1.etsystatic.com/il_570xN.321568273.jpg
p128
aVhttp://b.vimeocdn.com/ts/136/375/136375440_640.jpg
p129
aVhttp://farm7.staticflickr.com/6036/7014914719_c8bca11ac9_m.jpg
p130
aVhttp://www.kasaydinhaber.com/yeni/images/stories/demo/gallery/gl-6.jpg
p131
aVhttp://picstexted.com/uploads/pics/big/632-515.jpg
p132
aVhttp://i3.ytimg.com/vi/jKgADiSNvnQ/hqdefault.jpg
p133
aVhttp://i1.ytimg.com/vi/P_Dl16E6xw8/hqdefault.jpg
p134
aVhttp://i4.ytimg.com/vi/oTljsiwkVqA/hqdefault.jpg
p135
aVhttp://i1.ytimg.com/vi/0yPMdWxSxUg/hqdefault.jpg
p136
aVhttp://i3.ytimg.com/vi/VhnGW4DV7Jg/hqdefault.jpg
p137
aVhttp://i3.ytimg.com/vi/JxohJX9ElpE/hqdefault.jpg
p138
aVhttp://i3.ytimg.com/vi/nas51x3ZQCg/hqdefault.jpg
p139
aVhttp://i3.ytimg.com/vi/Bf6WoGYuEdk/hqdefault.jpg
p140
aVhttp://i1.ytimg.com/vi/pfkj-AxsqFo/hqdefault.jpg
p141
aVhttp://i3.ytimg.com/vi/VI94AsuvUUA/hqdefault.jpg
p142
aVhttp://i2.ytimg.com/vi/aXJQmTSptCc/hqdefault.jpg
p143
aVhttp://bigpicture.ru/wp-content/uploads/2012/01/712.jpg
p144
aVhttp://i3.ytimg.com/vi/Fv1jrS_3Mbw/hqdefault.jpg
p145
aVhttp://i1.ytimg.com/vi/LwQini-DIZk/hqdefault.jpg
p146
aVhttp://i1.ytimg.com/vi/huwGeNUK6Os/hqdefault.jpg
p147
aVhttp://i4.ytimg.com/vi/C3lWwBslWqg/hqdefault.jpg
p148
aVhttp://i1.ytimg.com/vi/hJ-icfN0Ag0/hqdefault.jpg
p149
aVhttp://0.gravatar.com/avatar/0890d46f8c0e24dd6fb8546095b1144e?s=80&d=retro&r=G
p150
aVhttp://morecss.org/images/logo.png
p151
aVhttp://i.imgur.com/r6taV.jpg
p152
aVhttp://blog.smalleycreative.com/wp-content/uploads/2012/03/lanotdesign.com-mascotdesign-vincethevagrant.jpeg
p153
aVhttp://b.vimeocdn.com/ts/254/853/254853117_640.jpg
p154
aVhttp://3.asset.soup.io/asset/3047/2019_9cb6.gif
p155
aVhttp://0.asset.soup.io/asset/3047/2560_713b.gif
p156
aVhttp://i4.ytimg.com/vi/7QU1nvuxaMA/hqdefault.jpg
p157
aVhttp://i1.ytimg.com/vi/PLFVGwGQcB0/hqdefault.jpg
p158
aVhttp://i2.ytimg.com/vi/YqKpAHvrOjw/hqdefault.jpg
p159
aVhttp://8.asset.soup.io/asset/3041/8392_e8d1_400.gif
p160
aVhttp://29.media.tumblr.com/tumblr_m1vic97FcJ1qhm8hyo1_500.jpg
p161
aVhttp://28.media.tumblr.com/tumblr_lsjw7vLcn71qj88b4o1_500.jpg
p162
aVhttp://30.media.tumblr.com/tumblr_lxmbg2tikc1qczgtbo1_500.jpg
p163
aVhttp://28.media.tumblr.com/tumblr_m0txao1gi71qc8z3po1_250.jpg
p164
aVhttps://pythonadventures.files.wordpress.com/2012/03/sys_path.jpg?w=300&h=300
p165
aVhttp://bigpicture.ru/wp-content/uploads/2011/04/big.jpg
p166
aVhttp://i3.ytimg.com/vi/vSkb0kDacjs/hqdefault.jpg
p167
aVhttp://i.imgur.com/n8Bo1.jpg
p168
aVhttp://poppler.freedesktop.org/logo.png
p169
aVhttp://i2.ytimg.com/vi/YJVmu6yttiw/hqdefault.jpg
p170
aVhttp://i.radikal.com.tr/644x385/2012/04/06/fft5_mf954928.Jpeg
p171
aVhttp://i3.ytimg.com/vi/ZwModZmOzDs/hqdefault.jpg
p172
aVhttp://i.radikal.com.tr/644x385/2012/04/06/fft5_mf954991.Jpeg
p173
aVhttp://static.tumblr.com/bj3k5lc/Eu7lscn9v/banner.png
p174
aVhttp://24.media.tumblr.com/tumblr_ltqy0sF33Z1r4dgr7o1_500.jpg
p175
aVhttp://7.asset.soup.io/asset/3077/9063_bec7_400.gif
p176
aVhttp://blog.promoqube.com/wp-content/banners/pq_logo.png
p177
aVhttp://s3-ak.buzzfed.com/static/enhanced/terminal01/2011/9/30/12/enhanced-buzz-19891-1317398630-2.jpg
p178
aVhttp://s3-ak.buzzfed.com/static/enhanced/terminal01/2011/9/30/12/enhanced-buzz-19901-1317399001-6.jpg
p179
aVhttp://s3-ak.buzzfed.com/static/enhanced/terminal01/2011/9/30/15/enhanced-buzz-19892-1317411489-18.jpg
p180
aVhttp://s3-ak.buzzfed.com/static/enhanced/terminal01/2011/9/30/15/enhanced-buzz-19889-1317412032-12.jpg
p181
aVhttp://s3-ec.buzzfed.com/static/enhanced/web05/2011/12/2/14/enhanced-buzz-wide-3000-1322852671-31.jpg
p182
aVhttp://hidefwallpaper.org/wp-content/gallery/2_scenery_wallpaper_03/mountain-scenery-wallpaper-1920x1200-1005086.jpg
p183
aVhttp://cdn.userpics.com/original/1311789557_epic_australian_rules_football_catch.gif
p184
aVhttp://i.radikal.com.tr/644x385/2012/04/09/fft5_mf956647.Jpeg
p185
aVhttp://i4.ytimg.com/vi/S2ur-zD8wIE/hqdefault.jpg
p186
aVhttp://static.arstechnica.net/assets/2012/04/qt-foosball-4f7f50d-listing-thumb-300x169-32590-f.jpg
p187
aVhttp://open.salon.com/Themes/OpenSalon/images/opensalon_icon.gif
p188
aVhttp://i3.ytimg.com/vi/rfIKhGiyL7U/hqdefault.jpg
p189
aVhttp://i2.ytimg.com/vi/9SwbHl3L3Q4/hqdefault.jpg
p190
aVhttp://i2.ytimg.com/vi/yAyYf4T9zL8/hqdefault.jpg
p191
aVhttp://i2.ytimg.com/vi/9a1NhRbNJ_Y/hqdefault.jpg
p192
aVhttp://i1.ytimg.com/vi/P7gT0JzJBOI/hqdefault.jpg
p193
aVhttp://i3.ytimg.com/vi/Rl03afAqeFQ/hqdefault.jpg
p194
aVhttp://i2.ytimg.com/vi/5XzcwMaj6qA/hqdefault.jpg
p195
aVhttp://cdn.theatlantic.com/static/front/images/default_thumbnail.gif
p196
aVhttp://mobile.businessweek.com/images/lowend/bweek.gif
p197
aVhttp://www.news.harvard.edu/gazette/wp-content/uploads/2009/08/11-meditationtn.jpg
p198
aVhttp://onebigphoto.com/uploads/2011/12/the-worlds-largest-underwater-cave-russia.jpg
p199
aVhttp://nowsourcing.com/blog/wp-content/uploads/2010/02/lolcat_blog_comments.jpg
p200
aVhttps://p.twimg.com/AqW-8QnCEAAnGyK.jpg
p201
aVhttp://i1.ytimg.com/vi/HHDd3_hKlqw/hqdefault.jpg
p202
aVhttp://static8.businessinsider.com/image/4f831f856bb3f73149000028/instagram-cofounder-heres-how-we-scaled-into-a-billion-dollar-company-deck.jpg
p203
aVhttp://blog.burakkutbay.com/wp-content/themes/cassius/images/logo.png
p204
aVhttps://static-secure.guim.co.uk/sys-images/Guardian/Pix/pictures/2012/4/10/1334074757154/kiss-smell-004.jpg
p205
aVhttp://b.vimeocdn.com/ts/278/289/278289587_640.jpg
p206
aVhttp://i.imgur.com/rCofm.gif
p207
aVhttp://farm8.staticflickr.com/7139/6928093758_6970fdf49a_z.jpg
p208
aVhttp://getfile9.posterous.com/getfile/files.posterous.com/temp-2012-04-13/yAgzoDjGhilJklewnpCIlcruAzlwtqfljrcklprBbGceprdnvuElrBmvebis/digital-native.jpeg.thumb100.jpg
p209
aVhttp://static.alkislarlayasiyorum.com/images/all_content_thumbnail/new/74/74226_1.jpg
p210
aVhttp://www.enkuba.com/wp-content/uploads/2012/04/Piraye-Antika_avatar-32x32.jpg
p211
aVhttp://farm1.staticflickr.com/4/5924469_35d47edefd.jpg
p212
aVhttp://mobile.businessweek.com/images/lowend/bweek.gif
p213
aVhttp://i2.ytimg.com/vi/10PsYKh1xRQ/hqdefault.jpg
p214
aVhttp://i2.ytimg.com/vi/ibfzcrHCjXY/hqdefault.jpg
p215
aVhttp://a1.twimg.com/profile_images/1567098459/avatar_frown.png
p216
aVhttp://i2.ytimg.com/vi/mODqQvlrgIQ/hqdefault.jpg
p217
aVhttp://i3.ytimg.com/vi/ZRhIAQAiTtY/hqdefault.jpg
p218
aVhttp://sstatic.net/stackoverflow/img/apple-touch-icon.png
p219
aVhttps://fbcdn-sphotos-a.akamaihd.net/hphotos-ak-prn1/562611_374428405933506_100000990505316_1083999_690524864_n.jpg
p220
aVhttp://muffinresearch.co.uk/wordpress/wp-includes/images/smilies/icon_smile.gif
p221
aVhttp://i.radikal.com.tr/644x385/2012/04/23/fft5_mf966352.Jpeg
p222
aVhttp://www.codeproject.com/KB/database/Visual_SQL_Joins/Visual_SQL_JOINS_V2.png
p223
aVhttp://zeptojs.com/logo.png
p224
aVhttp://1.asset.soup.io/asset/3121/8161_0a88_400.gif
p225
aVhttp://i3.ytimg.com/vi/JIHgfxVD13o/hqdefault.jpg
p226
aVhttp://www.fastcompany.com/files/imagecache/og_image/files/thumb-Whos-Next-Sahil-Lavingia-Applies-Lessons-From-Pinterest-To-His-New-E-Commerce-Site-Gumroad.jpg
p227
aVhttp://d24w6bsrhbeh9d.cloudfront.net/photo/3981470_700b.jpg
p228
aVhttp://3.asset.soup.io/asset/3126/0851_0218.gif
p229
aVhttp://ned.im/wp-content/themes/quicknote/library/images/bg_2.jpg
p230
aVhttp://i.radikal.com.tr/644x385/2012/04/26/fft5_mf968507.Jpeg
p231
aVhttp://b.vimeocdn.com/ts/665/214/66521456_640.jpg
p232
aVhttp://i2.ytimg.com/vi/-SEuoEJkODE/hqdefault.jpg
p233
aVhttp://i.radikal.com.tr/644x385/2012/04/27/fft5_mf969404.Jpeg
p234
aVhttp://i.imgur.com/fFZY6.png
p235
aVhttp://news.bbcimg.co.uk/media/images/59888000/jpg/_59888845_59888842.jpg
p236
aVhttp://linkfloyd.com//static/static/logo.png
p237
aVhttp://linkfloyd.com//static/static/logo.png
p238
aVhttp://0.gravatar.com/avatar/1a33e7a69df4f675fcd799edca088ac2?s=69&d=monsterid
p239
aVhttp://7.asset.soup.io/asset/3133/4535_03ec.gif
p240
aVhttp://i1.ytimg.com/vi/8lyqBHiuYIg/hqdefault.jpg
p241
aVhttp://i2.ytimg.com/vi/E6MSkG5txAA/hqdefault.jpg
p242
aVhttp://forums.linuxmint.com/styles/linux-mint/imageset/site_logo.gif
p243
aVhttp://i4.ytimg.com/vi/3vpmuMHor6Q/hqdefault.jpg
p244
aVhttp://thebrandbuilder.files.wordpress.com/2011/08/20110801_323c.jpg?w=300&h=300
p245
aVhttp://www.creativitypost.com/images/uploads/create/iStock_000013485370Small.jpg
p246
aVhttp://i3.ytimg.com/vi/6b4ZZQkcNEo/hqdefault.jpg
p247
aVhttp://i2.ytimg.com/vi/ISznqY3kESI/hqdefault.jpg
p248
aVhttp://i1.ytimg.com/vi/xqMVg5ixhd0/hqdefault.jpg
p249
aVhttp://i4.ytimg.com/vi/gDvoe091tk4/hqdefault.jpg
p250
aVhttp://i1.ytimg.com/vi/0QcKw9oejJ4/hqdefault.jpg
p251
aVhttp://i1.ytimg.com/vi/83ULlgpT1UQ/hqdefault.jpg
p252
aVhttp://i2.ytimg.com/vi/-KxjVlaLBmk/hqdefault.jpg
p253
aVhttp://getfile0.posterous.com/getfile/files.posterous.com/temp-2012-05-01/HJBeDvDqxjzvasAHmidfEIBcJmafxrsieFjlJoqrfvlBheeGegkAxCImliAv/a.gif
p254
aVhttp://i4.ytimg.com/vi/omGHeVmv6NI/hqdefault.jpg
p255
aVhttp://i3.ytimg.com/vi/2ozwkI1SGUE/hqdefault.jpg
p256
aVhttp://i3.ytimg.com/vi/bNAnUygqOYc/hqdefault.jpg
p257
aVhttp://i4.ytimg.com/vi/SkvpEfAPXn4/hqdefault.jpg
p258
aVhttp://i1.ytimg.com/vi/4kFpG_xfymg/hqdefault.jpg
p259
aVhttp://i4.ytimg.com/vi/3CR5y8qZf0Y/hqdefault.jpg
p260
aVhttp://i4.ytimg.com/vi/W18Z3UnnS_0/hqdefault.jpg
p261
aVhttp://i4.ytimg.com/vi/_sUeGC-8dyk/hqdefault.jpg
p262
aVhttp://i2.ytimg.com/vi/YQIMGV5vtd4/hqdefault.jpg
p263
aVhttp://linkfloyd.com//static/static/logo.png
p264
aVhttp://readunread.com/wp-content/uploads/2012/04/Resim4-1024x141.jpg
p265
aVhttp://www.ogeeku.com/wp-content/uploads/2012/04/Ogeeku1.png
p266
aVhttp://inventwithpython.com/images/header.png
p267
aVhttp://3.bp.blogspot.com/-jWDQ10SSLnY/TyepFgVDhJI/AAAAAAAAADs/qwnfAGB-WII/s72-c/Untitled-1.jpg
p268
aVhttp://28.media.tumblr.com/avatar_d4cfd5f73a4d_128.png
p269
aVhttp://9.asset.soup.io/asset/3145/5417_9f7b.gif
p270
aVhttp://25.media.tumblr.com/tumblr_m23sfh0JVl1qg0pczo1_500.gif
p271
aVhttp://28.media.tumblr.com/tumblr_m0saefNqnv1qbzgf9o1_500.gif
p272
aVhttp://i3.ytimg.com/vi/NmfFm4lbrMQ/hqdefault.jpg
p273
aVhttp://i2.ytimg.com/vi/1PoFIohBSM4/hqdefault.jpg
p274
aVhttp://www.tornadoweb.org/static/tornado.png
p275
aVhttp://0.gravatar.com/avatar/afa18202f816722951974ab4f759406c?s=68&d=http%3A%2F%2F0.gravatar.com%2Favatar%2Fad516503a11cd5ca435acc9bb6523536%3Fs%3D68&r=R
p276
aVhttp://1.gravatar.com/avatar/fe0f103bdcd683adc3ca1879cc739e84?s=54&d=http%3A%2F%2F1.gravatar.com%2Favatar%2Fad516503a11cd5ca435acc9bb6523536%3Fs%3D54&r=G
p277
aVhttp://sstatic.net/stackoverflow/img/apple-touch-icon.png
p278
aVhttp://b.vimeocdn.com/ts/470/079/47007932_640.jpg
p279
aVhttp://media.djangoproject.com/img/site/mt.png
p280
aVhttp://i2.ytimg.com/vi/qX9FSZJu448/hqdefault.jpg
p281
aVhttps://fbcdn-sphotos-a.akamaihd.net/hphotos-ak-prn1/546178_355835371137846_109532732434779_908115_948540687_n.jpg
p282
aVhttp://6.mshcdn.com/wp-content/uploads/2012/04/tumblr-600.jpg
p283
aVhttp://www.assoc-amazon.com/e/ir?t=realpublishin-20&l=as2&o=1&a=0978846702
p284
aVhttp://c3354688.r88.cf0.rackcdn.com/wp-content/uploads/2011/01/facebook-new.jpg
p285
aVhttp://i4.ytimg.com/vi/oRm8RmNGFq4/hqdefault.jpg
p286
aVhttp://i1.sndcdn.com/artworks-000003294790-2hx3jx-t300x300.jpg?7ea2471
p287
aVhttp://3.asset.soup.io/asset/3169/8435_ab9a.gif
p288
aVhttp://img.gawkerassets.com/img/17mp98bddgpjnjpg/fb.jpg
p289
aVhttp://i3.ytimg.com/vi/NAxEw58AY8c/hqdefault.jpg
p290
aVhttp://i4.ytimg.com/vi/cKYeODP-Sek/hqdefault.jpg
p291
aVhttp://distilleryimage0.instagram.com/26d6f908a64011e1b9f1123138140926_7.jpg
p292
aVhttp://upload.wikimedia.org/wikipedia/commons/thumb/1/17/Resveratrol.svg/250px-Resveratrol.svg.png
p293
aVhttp://static.pubmed.gov/portal/portal3rc.fcgi/3467497/img/28977
p294
aVhttp://static.bbci.co.uk/programmeimages/368x207/episode/b01dzfgb.jpg?nodefault=true
p295
aVhttp://static.bbci.co.uk/programmeimages/368x207/episode/b01cywtq.jpg?nodefault=true
p296
aVhttp://i3.ytimg.com/vi/vvaz7vaOSxw/hqdefault.jpg
p297
aVhttp://united-coders.com/themes/zen/united_coders/logo.png
p298
aVhttp://www.latimes.com/media/photo/2010-07/55245228.jpg
p299
aVhttp://images.ted.com/images/ted/a259f8620ed5aac4f7a7d24b2a2a83e54ccb6e4c_389x292.jpg
p300
aVhttp://i.milliyet.com.tr/GazeteHaberIciResim/2012/06/11/fft16_mf2343418.Jpeg
p301
aVhttps://static-secure.guim.co.uk/sys-images/Guardian/Pix/pictures/2012/6/10/1339334874036/erdogan-004.jpg
p302
aVhttps://fbcdn-sphotos-a.akamaihd.net/hphotos-ak-ash4/301896_481815751832739_1532285206_n.jpg
p303
aVhttp://munfitnessblog.com/wp-content/uploads/2007/12/sad-man-forehead-on-the-wall.JPG
p304
aVhttp://www.sinaafra.com/wp-content/uploads/2012/06/girisimcilik1-270x300.jpg
p305
aVhttp://stongy.com/wp-content/uploads/2012/06/stongy_spikere-yaz%C4%B1k.gif
p306
aVhttp://www.bennadel.com/images/header/ryan_jeffords_doug_boude.jpg
p307
aVhttp://sstatic.net/stackoverflow/img/apple-touch-icon.png
p308
aVhttp://www.devoluiva.com/Content/DevoluIVA/img/logo/logo_pixel.gif
p309
aVhttp://www.udemy.com/blog/wp-content/uploads/2011/12/PROGRAMMING-LANGUAGE-3-e1326262537447.png
p310
aVhttp://www.intel.com/sites/sitewide/HAT/50recode/pix/main-logo.png
p311
aVhttp://3.bp.blogspot.com/-5OCyoQVqJfQ/T-MLLGbEgAI/AAAAAAAABDQ/wwhwxMpw7Dc/s72-c/s1.jpg
p312
aVhttp://img04.alkislarlayasiyorum.com/images/all_content_thumbnail/79/79679-81.jpg
p313
aVhttp://i2.ytimg.com/vi/QkB9Gnltz-E/mqdefault.jpg
p314
aVhttp://www.fastcompany.com/files/imagecache/og_image/files/thumb-How-Reddit-Built-Its-Empire-On-500-Bucks-Some-Stickers-And-Giving-People-What-They-Want.jpg
p315
aVhttp://b.vimeocdn.com/ts/309/255/309255385_640.jpg
p316
aVhttp://i2.ytimg.com/vi/1MeCXzlAmNA/mqdefault.jpg
p317
aVhttp://www.impressivewebs.com/wp-content/themes/iw-2013/images/logo.png
p318
aVhttp://25.media.tumblr.com/tumblr_m4jvkfsJyI1rw0a8yo1_500.gif
p319
aVhttp://0.asset.soup.io/asset/3241/6864_c5a9_400.gif
p320
aVhttp://i3.ytimg.com/vi/b8lVRnKsu1s/mqdefault.jpg
p321
aVhttp://i1.ytimg.com/vi/tWpA5iY2V1I/mqdefault.jpg
p322
aVhttp://i4.ytimg.com/vi/SbyAZQ45uww/mqdefault.jpg
p323
aVhttp://i2.ytimg.com/vi/E8_afg5eImQ/mqdefault.jpg
p324
aVhttp://i4.ytimg.com/vi/G779UlpGQ3U/mqdefault.jpg
p325
aVhttp://i3.ytimg.com/vi/FrvlsfEfB3M/mqdefault.jpg
p326
aVhttp://i2.ytimg.com/vi/mTVHXOKUxDQ/mqdefault.jpg
p327
aVhttp://i2.ytimg.com/vi/uKPMtsPMGJY/mqdefault.jpg
p328
aVhttp://i1.ytimg.com/vi/LM8JhvfoqdA/mqdefault.jpg
p329
aVhttp://lookremix.com/user-media/cache/3e/84/3e8444b9748b876020817a422dee5a88.jpg
p330
aVhttp://uykusuz.eakalin.com/resimler/5d014b76bc65948bb35f26bc75efb0a0.jpg
p331
aVhttp://blog.promoqube.com/wp-content/uploads/2012/07/facebook-dislike-button.jpg
p332
aVhttp://i4.ytimg.com/vi/GvV9UZfLzsE/mqdefault.jpg
p333
aVhttp://i.imgur.com/TfPMi.jpg
p334
aVhttp://www.celeryproject.org/media/img/logo.png
p335
aVhttp://icdncube.milliyetvideo.com/video_snapshot_160x120/2012/07/12/fft2_mf127274.jpeg
p336
aVhttp://icdncube.milliyetvideo.com/video_snapshot_160x120/2012/07/12/fft2_mf127274.jpeg
p337
aVhttp://www.firstpost.com/wp-content/uploads/2012/07/Alzheimer1.jpg
p338
aVhttp://i.imgur.com/xeugA.gif
p339
aVhttp://i.imgur.com/EmI9F.jpg
p340
aVhttp://www.dailygalaxy.com/igoogle.jpg
p341
aVhttp://i.imgur.com/SC9BC.jpg
p342
aVhttp://bianet.org/images/bianet_logo.gif
p343
aVhttps://fbcdn-sphotos-a.akamaihd.net/hphotos-ak-snc7/426959_10151938985280249_58884274_n.jpg
p344
aVhttp://i3.ytimg.com/vi/6ycRum22iog/mqdefault.jpg
p345
aVhttp://www.hurriyet.com.tr/_np/1659/17241659.jpg
p346
aVhttp://i.imgur.com/FE39E.jpg
p347
aVhttp://twentynine.us/junk/blastoff.jpg
p348
aVhttp://i.imgur.com/QiF4x.jpg
p349
aVhttps://p.twimg.com/Axw_SrACIAAtidf.jpg:large
p350
aVhttp://www.dipsahaf.com/wp-content/uploads/2012/07/20b-500x275.jpg
p351
aVhttp://www.mobilgunlukler.com/wp-content/uploads/2012/07/esogumobil-toas-179x300.jpg
p352
aVhttp://www.webresourcesdepot.com/wp-content/themes/default/images/suggest-resource-trans.png
p353
aVhttp://i1.ytimg.com/vi/pzXUfg04gdw/mqdefault.jpg
p354
aVhttps://fbcdn-sphotos-a.akamaihd.net/hphotos-ak-snc7/s720x720/602316_474282395930448_957478285_n.jpg
p355
aVhttp://sa.bbc.co.uk/bbc/bbc/s?name=SET-COUNTER&app_type=web&ml_name=SSI&ml_version=0.9.1&language=tr-TR
p356
aVhttp://files.posterous.com/user_profile_pics/657160/krazy4.jpg
p357
aVhttp://okdork.com/wp-content/uploads/2010/10/mint-prototype-300x225.jpg
p358
aVhttp://sa.bbc.co.uk/bbc/bbc/s?name=SET-COUNTER&app_type=web&ml_name=SSI&ml_version=0.9.1&language=tr-TR
p359
aVhttp://icdncube.milliyetvideo.com/video_snapshot_160x120/2012/07/15/fft2_mf127726.jpeg
p360
aVhttp://bilimania.com/uploads/media/nash.JPG
p361
aVhttp://www.otekisinema.com/wp-content/uploads/2011/07/wolfcreek21.jpg
p362
aVhttp://grooveshark.com/webincludes/images/FacebookImage.png
p363
aVhttp://i2.ytimg.com/vi/AvGtVAsFguE/mqdefault.jpg
p364
aVhttp://haber.sol.org.tr/sites/default/files/images/mele-akini_0_0.jpg
p365
aVhttp://twistedsifter.sifter.netdna-cdn.com/wp-content/uploads/2011/06/70-lightning-bolts-ikaria-island-lightning-storm.jpg
p366
aVhttp://24.media.tumblr.com/avatar_3d3aa09dcfad_16.png
p367
aVhttp://25.media.tumblr.com/tumblr_m72e8yXrAI1ro330po1_500.jpg
p368
aVhttp://media.tumblr.com/tumblr_m71qh0eAaZ1qfupxr.jpg
p369
aVhttp://25.media.tumblr.com/tumblr_m71q7n6mB61qgpliao1_500.jpg
p370
aVhttp://www.ismailaga.info/yazi/wp-content/themes/bombax/images/twitter.png
p371
aVhttp://i.imgur.com/CLpz9.jpg
p372
aVhttp://i.imgur.com/iQwAh.jpg
p373
aVhttp://a6.sphotos.ak.fbcdn.net/hphotos-ak-ash4/206155_245226092252727_249674071_n.jpg
p374
aVhttp://d24w6bsrhbeh9d.cloudfront.net/photo/4744824_700b.jpg
p375
aVhttp://www.hurriyet.com.tr/_yazarlar/images/113b.jpg?fbrefresh=11301
p376
aVhttp://sa.bbc.co.uk/bbc/bbc/s?name=SET-COUNTER&app_type=web&ml_name=SSI&ml_version=0.9.1&language=tr-TR
p377
aVhttp://sa.bbc.co.uk/bbc/bbc/s?name=SET-COUNTER&app_type=web&ml_name=SSI&ml_version=0.9.1&language=tr-TR
p378
aVhttp://i4.ytimg.com/vi/o22eIJDtKho/mqdefault.jpg
p379
aVhttps://fbcdn-sphotos-a.akamaihd.net/hphotos-ak-prn1/527941_481116278580393_860242957_n.jpg
p380
aVhttp://25.media.tumblr.com/tumblr_m73xqcb7gb1qepo3ro1_500.gif
p381
aVhttp://img04.alkislarlayasiyorum.com/images/all_content_thumbnail/81/81403-101.jpg
p382
aVhttp://i.radikal.com.tr/480x325/2012/07/18/fft64_mf1041536.Jpeg
p383
aVhttp://lookremix.com/user-media/cache/8a/27/8a277096437e61b86a6446820e683ce3.jpg
p384
aVhttp://www.languageicon.org/languageicon-callfordesigns.jpg
p385
aVhttp://i4.ytimg.com/vi/k1tyVlKjJZI/mqdefault.jpg
p386
aVhttp://i1.ytimg.com/vi/0NQwiGTXoRU/mqdefault.jpg
p387
aVhttp://1.asset.soup.io/asset/3248/2833_2f25.gif
p388
aVhttp://i4.ytimg.com/vi/S-Xm7s9eGxU/mqdefault.jpg
p389
aVhttp://i.radikal.com.tr/480x325/2012/07/19/fft64_mf1044209.Jpeg
p390
aVhttp://c.asset.soup.io/asset/3249/5532_605f.gif
p391
aVhttp://www.seyvet.com/resim/974d1c25fc.jpg
p392
aVhttp://i.imgur.com/9xRKj.jpg
p393
aVhttp://i.imgur.com/mw3G5.jpg
p394
aVhttp://i.imgur.com/XQUG5.jpg
p395
aVhttp://i.imgur.com/AqlGS.jpg
p396
aVhttp://i2.ytimg.com/vi/YCNY0mO4Jo0/mqdefault.jpg
p397
aVhttp://www.bianet.org/images/biapazar_logo.gif
p398
aVhttp://i.imgur.com/8vea9.jpg
p399
aVhttp://i.imgur.com/YlXsW.jpg
p400
aVhttp://i.imgur.com/ndFsx.jpg
p401
aVhttp://i.imgur.com/P99mQ.jpg
p402
aVhttp://1.bp.blogspot.com/-EhjMllV-3H4/Tb1u1su5FgI/AAAAAAAAASI/y6WKm9YrVtY/s1600/cute-lizard.jpg
p403
aVhttp://i.imgur.com/Ifa80.png
p404
aVhttp://i.imgur.com/gTXUX.jpg
p405
aVhttp://i.imgur.com/HhqmT.jpg
p406
aVhttp://i.imgur.com/C8JPp.jpg
p407
aVhttp://i.imgur.com/3g79y.jpg
p408
aVhttp://i.imgur.com/2WEOg.jpg
p409
aVhttp://assets.tumblr.com/images/default_avatar_128.gif
p410
aVhttp://i1.ytimg.com/vi/X8AZ3WrN_1k/mqdefault.jpg
p411
aVhttp://www.dragonlance.be/wp-content/uploads/2011/11/little.jpg
p412
aVhttp://i1.ytimg.com/vi/TR9gO3qHFK0/mqdefault.jpg
p413
aVhttp://i1.ytimg.com/vi/hAyuPXrAbak/mqdefault.jpg
p414
aVhttp://i.imgur.com/KH17Y
p415
aVhttp://i.imgur.com/fJ2oD.jpg
p416
aVhttps://fbcdn-sphotos-a.akamaihd.net/hphotos-ak-snc6/251859_10151038985243680_1906465639_n.jpg
p417
aVhttp://images.quupmedia.com/i/0_buc1_block9_0_338695581041950720-28819-jpg/g.jpg
p418
aVhttp://i.imgur.com/NaVzt.jpg
p419
aVhttp://www.fastcompany.com/files/imagecache/og_image/files/thumb-quasar-water.jpg
p420
aVhttps://fbcdn-sphotos-a.akamaihd.net/hphotos-ak-prn1/551159_10151064962349868_2029658922_n.jpg
p421
aVhttp://images.quupmedia.com/i/0_buc1_block9_0_339056823615094784-24646-gif/play?.jpg
p422
aVhttp://i3.ytimg.com/vi/fvUQQF5S4Dg/mqdefault.jpg
p423
aVhttp://static2.dmcdn.net/static/video/794/433/47334497:jpeg_preview_large.jpg?20120715191553
p424
aVhttp://i.imgur.com/6THtj.gif
p425
aVhttps://i3.ytimg.com/vi/fW8amMCVAJQ/mqdefault.jpg
p426
aVhttp://i1.ytimg.com/vi/dsU9zmnZ37g/mqdefault.jpg
p427
aVhttp://a1.sndcdn.com/images/fb_placeholder.png?370a1c9
p428
aVhttp://i4.ytimg.com/vi/WOj3ekRpCsQ/mqdefault.jpg
p429
aVhttp://i.imgur.com/IwWUg.jpg
p430
aVhttps://fbcdn-sphotos-a.akamaihd.net/hphotos-ak-snc6/603402_10152022956740190_654295816_n.jpg
p431
aVhttp://i.imgur.com/RrGwB
p432
aVhttp://i4.ytimg.com/vi/s9MszVE7aR4/mqdefault.jpg
p433
aVhttp://p.twimg.com/AyqUFiRCYAErWuE.jpg
p434
aVhttps://fbcdn-sphotos-a.akamaihd.net/hphotos-ak-ash4/251969_498393953508743_974035593_n.jpg
p435
aVhttp://i1.ytimg.com/vi/dF47rrHd7wo/mqdefault.jpg
p436
aVhttp://sun-surfer.com/photos/2012/06/Romantic-Garden-Design-by-Jamie-Durie.jpg
p437
aVhttp://www.girlswhocode.com/storage/Header3.gif
p438
aVhttp://i2.ytimg.com/vi/uQITWbAaDx0/mqdefault.jpg
p439
aVhttp://i4.ytimg.com/vi/K5s_1rKP4_I/mqdefault.jpg
p440
aVhttp://i.radikal.com.tr/480x325/2012/07/26/fft64_mf1051813.Jpeg
p441
aVhttp://www.wired.com/images/global_header/subscribe/gh_lbSubUnit.gif
p442
aVhttp://i1.ytimg.com/vi/TaZWbrqUTTY/mqdefault.jpg
p443
aVhttps://fiber.google.com/img/video/rabbit-new-endframe.jpg
p444
aVhttp://i1.ytimg.com/vi/Xb3TLux7XpI/mqdefault.jpg
p445
aVhttp://i1.ytimg.com/vi/4LfJ0ZKxW7s/mqdefault.jpg
p446
aVhttps://fbcdn-sphotos-a.akamaihd.net/hphotos-ak-ash4/480093_10150968806487005_498288787_n.jpg
p447
aVhttp://3.bp.blogspot.com/--6UHWKs4xuY/UBCF5kbad3I/AAAAAAAAZgw/DeQ4pW_4SBs/s72-c/aa11.jpg
p448
aVhttp://i4.ytimg.com/vi/_TjxnCgv8Uw/mqdefault.jpg
p449
aVhttp://i3.ytimg.com/vi/NqDTE6dHpJw/mqdefault.jpg
p450
aVhttp://i2.ytimg.com/vi/YLO7tCdBVrA/mqdefault.jpg
p451
aVhttp://a.asset.soup.io/asset/3357/2906_2426.gif
p452
aVhttp://i.imgur.com/0hsL1.jpg
p453
aVhttp://haber.sol.org.tr/sites/default/files/images/malatr1.jpg
p454
aVhttp://i.imgur.com/L2wcB.jpg
p455
aVhttps://d5nxst8fruw4z.cloudfront.net/atrk.gif?account=t/NRf1aYS5000p
p456
aVhttp://www.webrazzi.com/wp-content/uploads/2012/07/Marissa-Mayer.jpg
p457
aVhttp://www.mobilgunlukler.com/wp-includes/images/smilies/icon_smile.gif
p458
aVhttps://i2.ytimg.com/vi/UvEiSa6_EPA/mqdefault.jpg
p459
aVhttp://www.btnet.com.tr/wp-content/miniresim/5/54581_120.jpg
p460
aVhttp://www.btnet.com.tr/wp-content/miniresim/4/48624_120.jpg
p461
aVhttp://cdn.theatlantic.com/static/front/images/default_thumbnail.gif
p462
aVhttp://f.asset.soup.io/asset/3461/2415_fd63_400.gif
p463
aVhttp://i2.ytimg.com/vi/uqLGuRX_nLM/mqdefault.jpg
p464
aVhttp://i1.ytimg.com/vi/PULdPep_xfs/mqdefault.jpg
p465
aVhttp://codeblog.dhananjaynene.com/wp-content/plugins/wp-spamfree/img/wpsf-img.php
p466
aVhttp://images.quupmedia.com/i/0_buc1_block9_0_342980457391980544-25465-gif/play
p467
aVhttp://i.imgur.com/Epw13.jpg
p468
aVhttp://www.burasikapali.com/wp-content/uploads/2012/07/Metin-Feyyaz-Kadir-Ulvi-Riza-Gokhan.jpg
p469
aVhttp://media.rhizome.org/blog/8753/interface-1.png
p470
aVhttp://a1.sndcdn.com/images/fb_placeholder.png?d699587
p471
aVhttp://marketingland.com/wp-content/ml-loads/2012/08/facebook-questions-go.png
p472
aVhttp://25.media.tumblr.com/avatar_3d3aa09dcfad_128.png
p473
aVhttps://lh6.googleusercontent.com/-MOFQu3EI-Xc/UB9sCTQRibI/AAAAAAAAOUs/hD5Odl1Uvos/s288/geridekalan.gif
p474
aVhttp://haber.sol.org.tr/sites/default/files/images/olimsq2ew.jpg
p475
aVhttps://d1pe4z3im3hbde.cloudfront.net/css/1.56/images/pixel.gif
p476
aVhttp://i3.ytimg.com/vi/FECUk41kJUg/mqdefault.jpg
p477
aVhttp://i4.ytimg.com/vi/gEI7Cy-WLfU/mqdefault.jpg
p478
aVhttp://blog.guvenatbakan.com/wp-content/themes/dailypost/images/forword.png
p479
aVhttp://blog.guvenatbakan.com/wp-content/themes/dailypost/images/forword.png
p480
aVhttp://1.gravatar.com/avatar/dfe3d5c95f41658879629e436cbc1649?s=48&d=http%3A%2F%2F1.gravatar.com%2Favatar%2Fad516503a11cd5ca435acc9bb6523536%3Fs%3D48&r=G
p481
aVhttp://loker.radiobrecht.org/wp-content/uploads/2012/02/instapaper_screenshot-300x249.png
p482
aVhttp://loker.radiobrecht.org/wp-content/uploads/2010/07/36395_469640289516_48281319516_6397618_2848716_n-300x196.jpg
p483
aVhttp://i.radikal.com.tr/480x325/2012/08/06/fft64_mf1065929.Jpeg
p484
aVhttp://i.imgur.com/ZPYp9.jpg
p485
aVhttp://randomain.net/assets/img/logo.png
p486
aVhttp://i3.ytimg.com/vi/roVZPi6Wg3k/mqdefault.jpg
p487
aVhttp://www.colorfulwolf.com/blog/wp-content/themes/wolfprime/images/wolf.jpg
p488
aVhttp://www.mehmetkose.org/img/ajax-loader.gif
p489
aVhttp://www.burasikapali.com/2012/vani-unutma-besiktasli/
p490
aVhttp://www.webresourcesdepot.com/wp-content/themes/default/images/suggest-resource-trans.png
p491
aVhttp://b.asset.soup.io/asset/3348/5419_7177.gif
p492
aVhttp://24.media.tumblr.com/tumblr_m3p7t4je4U1qe1kseo1_500.jpg
p493
aVhttp://2.bp.blogspot.com/_eyZIpPbjzfg/TIhB3B87BNI/AAAAAAAACEU/_Hk0ScZLO_Y/S1600-R/sonkartallar+test+02.jpg
p494
aVhttp://i.imgur.com/JVQzB.jpg
p495
aVhttp://i.imgur.com/ta4Xz.jpg
p496
aVhttp://b9.sustatic.com/728Q1cq7CoM3gF9t0nIlHg
p497
aVhttp://i3.ytimg.com/vi/6B8SSKgkALc/mqdefault.jpg
p498
aVhttp://blog.jamespacileo.com/static/blog-logo-2.gif
p499
aVhttp://s3.amazonaws.com/github/ribbons/forkme_right_red_aa0000.png
p500
aVhttp://www.google.com/intl/en_ALL/images/logos/video_logo.gif
p501
aVhttp://i.imgur.com/XZUrR.gif
p502
aVhttp://i.imgur.com/JiTTk.jpg
p503
aVhttp://thesuiteworld.com/wp-content/uploads/2011/07/underwater-photography.jpg
p504
aVhttp://beta.eksisozluk.com/content/img/ilogo114.png
p505
aVhttp://grunerandjahr.112.2o7.net/b/ss/gjfastcompanydev/1/H.24.2--NS/0/3577235
p506
aVhttp://b9.sustatic.com/8MOY92LWEQdxJH7bpiHY3Q
p507
aVhttp://i4.ytimg.com/vi/kAWS57Xlwoc/mqdefault.jpg
p508
aVhttp://mc.yandex.ru/watch/16252423
p509
aVhttp://lincolnloop.com/static/img/logo.png
p510
aVhttp://themeforest.net/images/bundles/birthday2012/fb-thumb.jpg
p511
aVhttp://adililhan.com/logo.jpg
p512
aVhttp://adililhan.com/logo.jpg
p513
aVhttp://www.newscientist.com/data/ads/nssubs/offers/subsimage/headerROW.gif
p514
aVhttp://i.radikal.com.tr/480x325/2012/08/21/fft64_mf1084519.Jpeg
p515
aVhttps://fbcdn-sphotos-c-a.akamaihd.net/hphotos-ak-ash3/542476_522603997755288_1834660347_n.jpg
p516
aVhttp://linkfloyd.com//static/static/logo.png
p517
aVhttp://img.haber1903.com/h/t/nuri_ozgul_yazdi_besiktas_tribunu_bitmistir_1345633995.jpg
p518
aVhttp://i4.ytimg.com/vi/cewZG53Rqtg/mqdefault.jpg
p519
aVhttp://i.imgur.com/tsckm.jpg
p520
aVhttp://i.imgur.com/S3iOd.jpg
p521
aVhttp://i.imgur.com/udFfw.jpg
p522
aVhttp://i.imgur.com/Kq2CR.gif
p523
aVhttp://i.imgur.com/m4XOF.jpg
p524
aVhttp://i.imgur.com/CC3UO.gif
p525
aVhttp://i3.ytimg.com/vi/vdYK3Ge0YtA/mqdefault.jpg
p526
aVhttp://2.asset.soup.io/asset/3709/3522_3b03.gif
p527
aVhttp://0.asset.soup.io/asset/3577/5536_b736.gif
p528
aVhttp://d24w6bsrhbeh9d.cloudfront.net/photo/5131442_460s.jpg
p529
aVhttps://fbcdn-sphotos-g-a.akamaihd.net/hphotos-ak-snc6/264069_229369520431101_1782686_n.jpg
p530
aVhttp://radorecdn.bobiler.org/upload/photographs/27851278250.jpg
p531
aVhttp://www.inc.com/uploaded_files/image/336x336/babies-bucket_19878.jpg
p532
aVhttp://i.radikal.com.tr/480x325/2012/08/23/fft64_mf1087123.Jpeg
p533
aVhttp://i.radikal.com.tr/480x325/2012/08/23/fft64_mf1087028.Jpeg
p534
aVhttps://fbcdn-sphotos-a-a.akamaihd.net/hphotos-ak-ash4/376785_255648864537431_30820849_n.jpg
p535
aVhttp://i.imgur.com/SGQUo.jpg
p536
aVhttp://www.omerekinci.com/wp-content/uploads/oe-logo.png
p537
aVhttps://fbcdn-sphotos-b-a.akamaihd.net/hphotos-ak-ash3/s480x480/582651_278327158942805_949290978_n.jpg
p538
aVhttp://www.bianet.org/images/bianet_logo.gif
p539
aVhttps://fbcdn-sphotos-g-a.akamaihd.net/hphotos-ak-ash4/185465_383658701706361_1825190327_n.jpg
p540
aVhttp://sqlfiddle.com/images/fiddle_transparent_small.png
p541
aVhttps://fbcdn-sphotos-e-a.akamaihd.net/hphotos-ak-ash3/562792_255864174515900_1347514348_n.jpg
p542
aVhttp://i1.ytimg.com/vi/lmc21V-zBq0/mqdefault.jpg
p543
aVhttp://tercan.net/wp-content/themes/lightword/images/logo.png
p544
aVhttp://i.imgur.com/wGUTG.gif
p545
aVhttp://25.media.tumblr.com/avatar_3d3aa09dcfad_128.png
p546
aVhttp://www.birgun.net/actuels/1345639096.jpg
p547
aVhttps://p.twimg.com/A1EiVAcCMAE5THk.jpg:large
p548
aVhttp://0.asset.soup.io/asset/3713/4480_14bb_400.gif
p549
aVhttps://secure.gravatar.com/avatar/ad516503a11cd5ca435acc9bb6523536?s=25&forcedefault=y&d=identicon
p550
aVhttp://www.voscreen.com/img/thumbnail.png
p551
aVhttp://www.voscreen.com/img/thumbnail.png
p552
aVhttp://www.burasikapali.com/wp-content/uploads/2012/03/ibb-bjk.jpg
p553
aVhttp://tayfabandista.org/sinirsiz-ulussuz-surgunsuz/i/sinirsiz-ulussuz-surgunsuz.png
p554
aVhttp://www.zaytung.com/fotos/enkotu10kofteci1.jpg
p555
aVhttps://fbcdn-sphotos-c-a.akamaihd.net/hphotos-ak-ash4/418853_487383961272734_678303633_n.jpg
p556
aVhttp://i1.ytimg.com/vi/8-glJd2GLK8/mqdefault.jpg
p557
aVhttps://fbcdn-sphotos-b-a.akamaihd.net/hphotos-ak-ash3/553800_10151169124385365_926956236_n.jpg
p558
aVhttp://i1.ytimg.com/vi/TxvpctgU_s8/mqdefault.jpg
p559
aVhttp://b.vimeocdn.com/ts/328/044/328044119_640.jpg
p560
aVhttps://i2.ytimg.com/vi/1C_40B9m4tI/mqdefault.jpg
p561
aVhttp://i.imgur.com/E53kD.jpg
p562
aVhttp://i.imgur.com/NysnQ.jpg
p563
aVhttp://i.imgur.com/bFhL1.jpg
p564
aVhttps://lh3.googleusercontent.com/vpPsX1QEnEPQ47r-njUoFDl2Voe8-s_jjHTWy0DqMaCMqEJvUr8RVG5kbaU8sTCmstV8amogPcGzzcjdwlA9Jt4ZD3JKy_0ZShyypmSRnuLDO1rDOOw
p565
aVhttp://i.radikal.com.tr/480x325/2012/08/27/fft64_mf1091477.Jpeg
p566
aVhttp://img2.blogblog.com/img/icon18_edit_allbkg.gif
p567
aVhttp://www.hurriyet.com.tr/_np/5525/17715525.jpg
p568
aVhttp://i3.codeplex.com/Images/v19310/loading_animation.gif
p569
aVhttp://images.quupmedia.com/i/0_buc1_block11_0_350750368197509120-24997-gif/play
p570
aVhttp://fehmicansaglam.net/assets/images/sha1.png
p571
aVhttp://images.quupmedia.com/i/0_buc1_block12_0_351720646276808704-23707-gif/play?.jpg
p572
aVhttp://sa.bbc.co.uk/bbc/bbc/s?name=SET-COUNTER&app_type=web&ml_name=SSI&ml_version=0.9.1&language=tr-TR
p573
aVhttp://www.zaytung.com/fotos/noda.jpg
p574
aVhttp://i1.ytimg.com/vi/heh4OeB9A-c/mqdefault.jpg
p575
aVhttp://www.ntvmsnbc.com/icons/pin.png?1
p576
aVhttp://againstpolitics.com/wp-content/uploads/2012/03/cropped-header.jpg
p577
aVhttp://25.media.tumblr.com/avatar_3d3aa09dcfad_128.png
p578
aVhttp://www.ntvmsnbc.com/icons/pin.png?1
p579
aVhttp://eticaretmag.com/wp-content/uploads/2012/08/rutherford-fake-comment-150x150.jpg
p580
aVhttps://fbcdn-sphotos-h-a.akamaihd.net/hphotos-ak-ash4/399693_256845084417809_1452207642_n.jpg
p581
aVhttp://i.imgur.com/dSZ1D.jpg
p582
aVhttp://i.imgur.com/dSZ1D.jpg
p583
aVhttp://dekadanz.com/wp-content/uploads/2012/08/gauge.jpg
p584
aVhttp://freelancefolder.com/wp-content/themes/relaunchtwo/images/logo.png
p585
aVhttp://5.asset.soup.io/asset/3713/1573_ff86.gif
p586
aVhttp://www.odatv.com/images/2012_08/2012_08_28/duzmece-tubitak-raporu-bu-haliyle-bile-davayi-cokertmistir-2808121200_l.jpg
p587
aVhttp://e.thumbs.redditmedia.com/zyjo7Bf90B2NhAmj.png
p588
aVhttp://www.fastcompany.com/multisite_files/fastcompany/imagecache/1/poster/2012/08/3000852-poster-942-hs-37signals-earns-millions-each-year.jpg
p589
aVhttps://i1.ytimg.com/vi/TTN9MR97JyQ/mqdefault.jpg
p590
aVhttp://6.asset.soup.io/asset/3749/6310_5483_400.gif
p591
aVhttp://media.etha.com.tr/images/2012/08/29/cache/etha-20120829-diyarbakir-escinsel-genc_ext.jpg
p592
aVhttp://www.aksam.com.tr/images/author/15_b.jpg
p593
aVhttp://i2.ytimg.com/vi/ElbRvE_zxzY/mqdefault.jpg
p594
aVhttp://i2.ytimg.com/vi/UZ_nxaDNqOM/mqdefault.jpg
p595
aVhttp://t24.com.tr/media/stories/2012/08/grid_polis-adaylarina-39nihaksiz-ask39-yasagi_413209015.jpg
p596
aVhttp://img.metro.co.uk/news_focus/Onlinegames.png
p597
aVhttp://i.imgur.com/NdKFc.png
p598
aVhttps://fbcdn-sphotos-d-a.akamaihd.net/hphotos-ak-ash3/538836_4560927866421_627461998_n.jpg
p599
aVhttp://dekadanz.com/wp-content/uploads/2012/03/mag2-125x168.jpg
p600
aVhttp://www.webrazzi.com/wp-content/uploads/2012/08/lift-webrazzi-150x150.jpg
p601
aVhttp://i1.ytimg.com/vi/tB5pCkAxnQE/mqdefault.jpg
p602
aVhttp://static2.businessinsider.com/image/500495cbecad04a26200000a/portugal-decriminalized-all-drugs-eleven-years-ago-and-the-results-are-staggering.jpg
p603
aVhttp://www.abc.net.au/health/library/img/cannabis_leaf.gif
p604
aVhttp://i.imgur.com/OARpf.jpg
p605
aVhttp://img1.ranker.com/list_img/219592/507607/C250/hottest-teachers-caught-sleeping-with-students.jpg?version=1346565915000
p606
aVhttp://i.imgur.com/FeeYj.png
p607
aVhttp://www.edebiyathaber.net/wp-content/uploads/2000/06/slide_231795_1079878_free1.jpg
p608
aVhttp://3.bp.blogspot.com/-ljf9SC17UIY/T3Vq_TwC5xI/AAAAAAAACMk/j7mifMIRbiU/s1600/eksibesiktas.JPG
p609
aVhttp://www.ntvmsnbc.com/icons/pin.png?1
p610
aVhttp://p.twimg.com/A17eAMxCMAAHDrk.jpg:large
p611
aVhttp://b.thumbs.redditmedia.com/nYYHVNmOKspTmLhg.png
p612
aVhttp://i.telegraph.co.uk/multimedia/archive/02323/mag2_2323927a.jpg
p613
aVhttp://2.bp.blogspot.com/-OwNrSvpCb3w/UEXPIiTvFFI/AAAAAAAAAmk/WXczDzNrcNg/s72-c/nvidia-optimus-logo.jpg
p614
aVhttp://i.imgur.com/DRSsq.jpg
p615
aVhttp://therunet.com/upload/__thumb_360x252/a8a/1e5447714cb50647026a2f6740f23.jpg
p616
aVhttp://sheddingbikes.com/rss-subscribe.jpg
p617
aVhttp://bianet.org/images/bianet_logo.gif
p618
aVhttps://fbcdn-sphotos-e-a.akamaihd.net/hphotos-ak-ash4/376820_10152084527880075_1788293813_n.jpg
p619
aVhttp://1.bp.blogspot.com/_4HKUHirY_2U/TRxVTdwt0uI/AAAAAAAAKqc/tKZYZoguzIE/s1600/rss.png
p620
aVhttp://www.hurriyet.com.tr/_np/9625/17809625.jpg
p621
aVhttp://i.radikal.com.tr/480x325/2012/09/05/fft64_mf1105159.Jpeg
p622
aVhttp://haber.sol.org.tr/sites/default/files/images/pozantivahseti1_0.jpg
p623
aVhttp://i.imgur.com/uVpo7.jpg
p624
aVhttp://i4.ytimg.com/vi/k7fPSFAxlGU/mqdefault.jpg
p625
aVhttps://fbcdn-sphotos-c-a.akamaihd.net/hphotos-ak-ash3/561650_387620217969991_1402601124_n.jpg
p626
aVhttps://fbcdn-sphotos-f-a.akamaihd.net/hphotos-ak-snc7/296341_492116290799501_2099404892_n.jpg
p627
aVhttp://i.imgur.com/jxBZG.jpg
p628
aVhttp://marksist.org/images/stories/demo/other/user-increase.gif
p629
aVhttp://www.guvenatbakan.net/wp-content/uploads/cpp_cikti-300x139.png
p630
aVhttp://i1.ytimg.com/vi/PsYBZIGpq0g/mqdefault.jpg
p631
aVhttp://i4.ytimg.com/vi/oO3jYSm1kRI/mqdefault.jpg
p632
aVhttp://i3.ytimg.com/vi/JRWox-i6aAk/mqdefault.jpg
p633
aVhttp://i1.ytimg.com/vi/tmR-CeJGM6E/mqdefault.jpg
p634
aVhttp://i.imgur.com/FbOEk.png
p635
aVhttp://i3.ytimg.com/vi/b-I2s5zRbHg/mqdefault.jpg
p636
aVhttp://i3.ytimg.com/vi/b-I2s5zRbHg/hqdefault.jpg
p637
aVhttp://i3.ytimg.com/vi/R8WRjnO68kw/mqdefault.jpg
p638
aVhttp://i2.ytimg.com/vi/mzS600dZbPo/mqdefault.jpg
p639
aVhttp://2.bp.blogspot.com/-m9PP3w1FXwg/UEmzWv_42cI/AAAAAAAAVwo/Rd4jC5s_7Ks/s72-c/12.jpg
p640
aVhttps://fbcdn-sphotos-e-a.akamaihd.net/hphotos-ak-snc7/402212_258848067550844_1487536645_n.jpg
p641
aVhttps://fbcdn-sphotos-h-a.akamaihd.net/hphotos-ak-snc7/293767_384753411587014_1074145314_n.jpg
p642
aVhttp://i2.ytimg.com/vi/qI92xA9IYlg/mqdefault.jpg
p643
aVhttp://i2.ytimg.com/vi/qI92xA9IYlg/mqdefault.jpg
p644
aVhttp://i4.ytimg.com/vi/_YtH5GVpOCk/mqdefault.jpg
p645
aVhttp://static.eksisozluk.com/img/ilogo.png
p646
aVhttp://i4.ytimg.com/vi/Clv77t2JMhk/mqdefault.jpg
p647
aVhttp://www.sendika.org/images/pixel.gif
p648
aVhttp://i.imgur.com/msDHe.jpg
p649
aVhttp://4.bp.blogspot.com/-Pg-Naex8hJE/UEuPqkyAg1I/AAAAAAAAHHM/xb8eckh9AtI/s72-c/e%C5%9Fcinsel.png
p650
aVhttp://i.imgur.com/bZqeH.jpg
p651
aVhttp://sa.bbc.co.uk/bbc/bbc/s?name=SET-COUNTER&app_type=web&ml_name=SSI&ml_version=0.11.1&language=tr-TR&blq_s=3.5&blq_r=3.5&blq_v=worldservice-worldwide
p652
aVhttp://sa.bbc.co.uk/bbc/bbc/s?name=SET-COUNTER&app_type=web&ml_name=SSI&ml_version=0.11.1&language=tr-TR&blq_s=3.5&blq_r=3.5&blq_v=worldservice-worldwide
p653
aVhttp://sa.bbc.co.uk/bbc/bbc/s?name=SET-COUNTER&app_type=web&ml_name=SSI&ml_version=0.11.1&language=tr-TR&blq_s=3.5&blq_r=3.5&blq_v=worldservice-worldwide
p654
aVhttps://fbcdn-sphotos-f-a.akamaihd.net/hphotos-ak-prn1/564748_10151412504627907_1648999193_n.jpg
p655
aVhttp://www.ntvmsnbc.com/icons/pin.png?1
p656
aVhttp://i4.ytimg.com/vi/oS6wfWu0JvA/mqdefault.jpg
p657
aVhttp://www.google.com/images/icons/ui/gprofile_button-32.png
p658
aVhttp://i1.ytimg.com/vi/pT-b2SpFIWo/mqdefault.jpg
p659
aVhttp://sa.bbc.co.uk/bbc/bbc/s?name=SET-COUNTER&app_type=web&ml_name=SSI&ml_version=0.11.1&language=tr-TR&blq_s=3.5&blq_r=3.5&blq_v=worldservice-worldwide
p660
aVhttps://fbcdn-sphotos-f-a.akamaihd.net/hphotos-ak-ash4/383264_494929667184164_304482882_n.jpg
p661
aVhttp://tctechcrunch2011.files.wordpress.com/2012/09/screen-shot-2012-09-10-at-07-04-45.png?w=150
p662
aVhttp://venturebeat.files.wordpress.com/2011/10/penelope-trunk.jpg
p663
aVhttp://i3.ytimg.com/vi/ny43zFochi8/mqdefault.jpg
p664
aVhttp://i2.ytimg.com/vi/m6Gt2D5mbrU/mqdefault.jpg
p665
aVhttp://i3.ytimg.com/vi/2wicVDVQzzM/mqdefault.jpg
p666
aVhttp://www.newyorker.com/online/blogs/cartoonists/stevens-cartoon%201.jpg
p667
aVhttp://i.imgur.com/oezB5.jpg
p668
aVhttp://i4.ytimg.com/vi/snSIRJ2brEk/mqdefault.jpg
p669
aVhttp://img2.blogblog.com/img/icon18_edit_allbkg.gif
p670
aVhttp://i1.ytimg.com/vi/HiuZ0nyZ5c4/mqdefault.jpg
p671
aVhttp://postdijital.com/wp-content/uploads/2010/03/chart.png
p672
aVhttp://www.bianet.org/images/bianet_logo.gif
p673
aVhttp://postdijital.com/wp-content/uploads/2010/10/ss.jpeg
p674
aVhttp://postdijital.com/wp-content/uploads/2010/10/ss.jpeg
p675
aVhttp://i4.ytimg.com/vi/S41n8IVKvpw/mqdefault.jpg
p676
aVhttp://i4.ytimg.com/vi/G333Is7VPOg/mqdefault.jpg
p677
aVhttp://i4.ytimg.com/vi/kA4Odj4HgYA/mqdefault.jpg
p678
aVhttp://3.bp.blogspot.com/-MFFBy0AyrPE/UE9XfRCsSWI/AAAAAAAADHQ/2pR1uw4f6WM/s72-c/internet+bus+tour+logo-3.png
p679
aVhttp://www.birgun.net/actuels/1347441067.jpg
p680
aVhttp://fotograf.gazetevatan.com/imgs/vatan-logo2.gif
p681
aVhttps://fbcdn-sphotos-g-a.akamaihd.net/hphotos-ak-prn1/558725_10152121715245249_1972530365_n.jpg
p682
aVhttp://onedio.com/img/50505fb4208128eb01000145/536/293
p683
aVhttp://www.etohum.com/wp-content/uploads/2012/09/header_wf-1-680x342.png
p684
aVhttp://www.girisimhaber.com/image.axd?picture=2012%2f8%2fsunum-t%c3%bcyolar%c4%b1.jpg
p685
aVhttp://www.duzceyerelhaber.com/resim/upload/31513.jpg
p686
aVhttp://www.webrazzi.com/wp-content/uploads/2012/09/istanbul.net_infoGraphic.jpg
p687
aVhttp://i.sabah.com.tr/sbh/y/e988117a-d347-4cb0-8459-82689d4928ea.jpg
p688
aVhttp://i3.ytimg.com/vi/NqKa-SrIOFc/mqdefault.jpg
p689
aVhttp://www.esogu.net/bluev2/templates/xinha/plugins/ImageManager/demo_images/ikonos/esogu_logo_amblem_2011.jpg
p690
aVhttps://i4.ytimg.com/vi/7OjHDczxSrI/mqdefault.jpg
p691
aVhttp://i2.ytimg.com/vi/mJnsMIlFauw/mqdefault.jpg
p692
aVhttp://i2.ytimg.com/vi/i5wBA4GcOiU/mqdefault.jpg
p693
aVhttp://medya.zaman.com.tr/extentions/zaman.com.tr/img/section/yorumlar.png
p694
aVhttp://katalog.ibu.edu.tr/yordambt/bilgiver/kapakyukle.php
p695
aVhttp://25.media.tumblr.com/avatar_3d3aa09dcfad_128.png
p696
aVhttp://i.radikal.com.tr/480x325/2012/09/16/fft64_mf1120063.Jpeg
p697
aVhttp://i1.ytimg.com/vi/hVcTMpz_3d0/mqdefault.jpg
p698
aVhttp://0.asset.soup.io/asset/3778/1056_19a2.gif
p699
aVhttp://8.asset.soup.io/asset/3769/9208_d1e8.gif
p700
aVhttp://i.imgur.com/AA2XJ.jpg
p701
aVhttp://i.imgur.com/2qApE.png
p702
aVhttp://i4.ytimg.com/vi/OfRB2M7SEBE/mqdefault.jpg
p703
aVhttp://onstartups.com/Portals/150/images/ninja-dev-small.jpg
p704
aVhttp://startjournal.org/wp-content/uploads/2011/02/006_DtL_final-225x300.jpg
p705
aVhttp://t24.com.tr/media/stories/2012/09/grid_pozanti39da-tecavuze-ugrayan-be-intihar-etti_588548703.jpg
p706
aVhttp://webvideohaber.hurriyet.com.tr/Haber/Thumbnail/v3/sakladi_17092012_1242_wmp4.jpg
p707
aVhttp://i2.ytimg.com/vi/Ea3RAkGqYC8/mqdefault.jpg
p708
aVhttp://www.birinciblog.com/wp-content/uploads/2012/09/herby-love-bug.jpg
p709
aVhttp://www.birinciblog.com/wp-content/uploads/2012/09/red-wine-celler.jpg
p710
aVhttps://fbcdn-profile-a.akamaihd.net/hprofile-ak-snc6/276898_325570242837_3526898_n.jpg
p711
aVhttp://www.thedailymuse.com/wp-content/uploads/2012/09/New-TDM-logo-4.png
p712
aVhttp://i2.ytimg.com/vi/5n3mbzcRHj8/mqdefault.jpg
p713
aVhttp://i2.ytimg.com/vi/uP6Ma33_ZkI/mqdefault.jpg
p714
aVhttp://i4.ytimg.com/vi/wcuw_3DRlUs/mqdefault.jpg
p715
aVhttp://im.haberturk.com/2012/09/19/777760_htufak.jpg?1348041495
p716
aVhttp://www.5harfliler.com/wp-content/uploads/2012/09/imrenaykut1.jpg
p717
aVhttp://img.haber1903.com/g/24139S.jpg
p718
aVhttp://i.imgur.com/wBt3B.jpg
p719
aVhttp://cdn2.business2community.com/wp-content/uploads/2012/08/goodvevil.jpg
p720
aVhttp://2.bp.blogspot.com/-9kypiR5jK3Q/T_SHY5Jmp2I/AAAAAAAAAAc/iICMr4kCI7o/s72-c/altan.jpg
p721
aVhttps://fbcdn-sphotos-d-a.akamaihd.net/hphotos-ak-snc6/252527_10151265218011115_533592844_n.jpg
p722
aVhttp://i1.ytimg.com/vi/LvZhRUsKNG4/mqdefault.jpg
p723
aVhttp://www.burasikapali.com/wp-content/uploads/2012/09/me\u015fale-500x378.jpg
p724
aVhttp://i4.ytimg.com/vi/7mxFNTxCqnc/mqdefault.jpg
p725
aVhttp://haber.sol.org.tr/sites/default/files/images/erdoganaoohakjertoo.jpg
p726
aVhttp://lh4.ggpht.com/_-3zxbVVlxmA/SWvusYaPQeI/AAAAAAAABCk/H9LdV1GBpWY/askerlik_thumb%5B26%5D.jpg?imgmax=800
p727
aVhttp://s3.vidimg.popscreen.com/original/15/eDliYjczMTI=_o_pub-lee-cooper-80s.jpg
p728
aVhttp://lincolnloop.com/static/img/logo.png
p729
aVhttp://www.edebiyathaber.net/wp-content/uploads/2012/09/178876.jpg
p730
aVhttp://i1.ytimg.com/vi/0AGD78mWcss/mqdefault.jpg
p731
aVhttp://i.imgur.com/DakIK.jpg
p732
aVhttp://i.usatoday.net/news/_photos/2012/01/29/Editorial-Not-hiring-smokers-crosses-the-line-C9TO7PS-x.jpg
p733
aVhttps://fbcdn-sphotos-h-a.akamaihd.net/hphotos-ak-ash4/429335_10151215511980853_1947192835_n.jpg
p734
aVhttp://i4.ytimg.com/vi/sr9_GfeoCjk/mqdefault.jpg
p735
aVhttp://images.britishpathe.com/?id=4249&num=225&size=thumb
p736
aVhttp://www.alternatifbilisim.org/w/images/thumb/Yurttas-gazeteciligi-2012.jpg/700px-Yurttas-gazeteciligi-2012.jpg
p737
aVhttp://img01.alkislarlayasiyorum.com/images/all_content_thumbnail/86/86886-281.jpg
p738
aVhttp://i2.ytimg.com/vi/aHjoi_0YhGA/mqdefault.jpg
p739
aVhttp://i.imgur.com/eagHp.jpg
p740
aVhttp://i4.ytimg.com/vi/CE_JcOa8U88/mqdefault.jpg
p741
aVhttp://www.fastcompany.com/multisite_files/fastcompany/imagecache/thumbnail/poster/2012/08/3000732-poster-942-5-productivity-strategies-successful-night-owls.jpg
p742
aVhttp://www.burasikapali.com/wp-content/uploads/2012/09/IHA_20120925_237953.jpg
p743
aVhttp://www.futuristika.org/wp/wp-content/uploads/2012/09/iffet.jpg
p744
aVhttp://www.2kr2.com/wp-content/themes/arras/images/rss.png
p745
aVhttp://i.radikal.com.tr/480x325/2012/09/28/fft64_mf1138842.Jpeg
p746
aVhttp://www.atlasharita.com/haritalar/baliklar/images/balikU_01.jpg
p747
aVhttp://i3.ytimg.com/vi/NiCESDFzxB0/mqdefault.jpg
p748
aVhttps://fbcdn-sphotos-f-a.akamaihd.net/hphotos-ak-snc7/292053_386005431472578_218425227_n.jpg
p749
aVhttp://i3.ytimg.com/vi/VEp29GS1VXI/mqdefault.jpg
p750
aVhttp://i3.ytimg.com/vi/fh8CdPN0gPo/mqdefault.jpg
p751
aVhttp://media.smashingmagazine.com/themes/smashingv4/images/logo.png
p752
aVhttp://i2.ytimg.com/vi/y5xKtFI9_6g/mqdefault.jpg
p753
aVhttp://www.gravatar.com/avatar/297e728fc79110ee2ea25ccc69a8ffae?s=32&d=identicon&r=PG
p754
aVhttp://blogs-images.forbes.com/thumbnails/blog_1165/pt_1165_9784_o.jpg?t=1349126445
p755
aVhttp://images.daybuyday.com/images/ps/ps_categorypicture/v1/49339_30_754.jpg
p756
aVhttp://www.ntvmsnbc.com/icons/pin.png?1
p757
aVhttp://i.minus.com/ibwcp6H6EgUYti.gif
p758
aVhttp://i.imgur.com/sDrtw.jpg
p759
aVhttp://i1.ytimg.com/vi/LVtD8sEiGVQ/mqdefault.jpg
p760
aVhttp://www.fastcocreate.com/multisite_files/cocreate/imagecache/thumbnail/poster/2012/09/1681680-poster-1280-panda-is-social-national-zoo-tweets.jpg
p761
aVhttp://i3.ytimg.com/vi/r1j_63BwMzw/mqdefault.jpg
p762
aVhttp://menshealth.com.tr/wp-content/uploads/2012/09/omuz.png
p763
aVhttp://static.eksisozluk.com/img/ilogo.png
p764
aVhttp://s1.reutersmedia.net/resources/r/?m=02&d=20121002&t=2&i=659101083&w=130&fh=&fw=&ll=&pl=&r=CBRE89118RF00
p765
aVhttp://haber.sol.org.tr/sites/default/files/images/tcvz_g.jpg
p766
aVhttp://www.dipnot.tv/Files/Article/photo_03102012113829_384_large.jpg
p767
aVhttp://www.joelonsoftware.com/i/newdesign-header.jpg
p768
aVhttps://a248.e.akamai.net/assets.github.com/images/gravatars/gravatar-user-420.png?1345673561
p769
aVhttp://www.maxgif.com/facebook-like.png
p770
aVhttp://i.imgur.com/1A0wX.jpg
p771
aVhttps://fbcdn-sphotos-e-a.akamaihd.net/hphotos-ak-prn1/52505_472699809436641_1035797673_o.jpg
p772
aVhttp://www.wimp.com/images/thumbs/479b50e66e4a06b6383976615cc27590_could_21.jpg
p773
aVhttp://25.media.tumblr.com/avatar_ee694a35738e_128.png
p774
aVhttp://tctechcrunch2011.files.wordpress.com/2012/10/facebook-promoted-posts.png?w=150
p775
aVhttp://i4.ytimg.com/vi/cUdIBR3t17Y/mqdefault.jpg
p776
aVhttp://i1.ytimg.com/vi/hnQq-O3kUSI/mqdefault.jpg
p777
aVhttps://fbcdn-sphotos-a-a.akamaihd.net/hphotos-ak-ash3/545367_377323412344231_47268242_n.jpg
p778
aVhttp://s3-ec.buzzfed.com/static/enhanced/terminal05/2012/7/6/14/anigif_enhanced-buzz-15206-1341599519-8.gif
p779
aVhttps://fbcdn-sphotos-c-a.akamaihd.net/hphotos-ak-ash4/302602_453743101344922_954401174_n.jpg
p780
aVhttp://sa.bbc.co.uk/bbc/bbc/s?name=SET-COUNTER&app_type=web&ml_name=SSI&ml_version=0.13.1&language=tr-TR&blq_s=3.5&blq_r=3.5&blq_v=worldservice-worldwide
p781
aVhttp://i.imgur.com/RGO6i.gif
p782
aVhttp://media.smashingmagazine.com/themes/smashingv4/images/logo.png
p783
aVhttp://cdn3.sbnation.com/entry_photo_images/6854719/win8invite_large_large.jpg
p784
aVhttp://i2.ytimg.com/vi/Ixsn81SqU6E/mqdefault.jpg
p785
aVhttp://rcs.seerinteractive.com/money/facebook.jpg
p786
aVhttp://assets2.beeblebroxapp.com/assets/firmhouse/logo-29eacdba2512c27bf2a9b4f632fe65ab.jpg
p787
aVhttp://i.imgur.com/jj1IH.jpg
p788
aVhttp://i.imgur.com/57N2g.gif
p789
aVhttp://dekadanz.com/wp-content/uploads/2012/10/Kba-sa\u011fl\u0131k.jpg
p790
aVhttp://i3.ytimg.com/vi/JOPEHmPE_38/mqdefault.jpg
p791
aVhttp://i1.ytimg.com/vi/0muak01p6k8/mqdefault.jpg
p792
aVhttp://www.hurriyet.com.tr/_np/5987/18075987.jpg
p793
aVhttp://img1.blogblog.com/img/icon18_wrench_allbkg.png
p794
aVhttp://i3.ytimg.com/vi/jTkaqHhmpws/mqdefault.jpg
p795
aVhttp://www.pyschools.com/stylesheets/images/pyschools.png
p796
aVhttp://static.getclicky.com/media/links/badge.gif
p797
aVhttp://bitboxer.de/wp-content/uploads/ruby-vs-python.png
p798
aVhttps://fbcdn-sphotos-b-a.akamaihd.net/hphotos-ak-ash4/430469_474517279246364_1124589824_n.jpg
p799
aVhttps://www.paypalobjects.com/ru_RU/i/scr/pixel.gif
p800
aVhttp://fehmicansaglam.net/assets/images/git-1.png
p801
aVhttp://i.radikal.com.tr/480x325/2012/10/07/fft64_mf1153657.Jpeg
p802
aVhttps://ssl-motherboard-tv-c79a03.c-col.com/
p803
aVhttp://i3.ytimg.com/vi/jSJ0LxoV6Tw/mqdefault.jpg
p804
aVhttp://i1.ytimg.com/vi/pYcv6odWfTM/mqdefault.jpg
p805
aVhttp://magazin.milliyet.com.tr/Images/MenuIcons/Home.png
p806
aVhttp://9.asset.soup.io/asset/3806/5817_9079_400.gif
p807
aVhttps://a248.e.akamai.net/assets.github.com/images/gravatars/gravatar-user-420.png?1345673561
p808
aVhttp://b.vimeocdn.com/ts/344/212/344212310_640.jpg
p809
aVhttp://i4.ytimg.com/vi/wL3o6dPfX7w/mqdefault.jpg
p810
aVhttp://cdn.thenextweb.com/wp-content/blogs.dir/1/files/2012/10/7001828584_b6491396a9_b-300x250.jpeg
p811
aVhttp://i3.ytimg.com/vi/2Q1cobb64yA/mqdefault.jpg
p812
aVhttp://debuggable.com/img/felix_thumb.jpg
p813
aVhttp://change-production.s3.amazonaws.com/photos/1/ov/mf/fmOVMFlromrQMhZ-170x127-cropped.jpg?1349775151
p814
aVhttp://www.fastcompany.com/multisite_files/fastcompany/imagecache/thumbnail/poster/2012/10/3001994-poster-642-hipstamatic-lost-year.jpg
p815
aVhttp://i1.ytimg.com/vi/daE1ZeTC-VA/mqdefault.jpg
p816
aVhttp://i.imgur.com/URyRr.gif
p817
aVhttp://fc04.deviantart.net/fs70/f/2012/222/7/8/firefox_plays_with_the_earth_by_enjinight-d5akizn.gif
p818
aVhttp://25.media.tumblr.com/tumblr_m4rmytOCY11qmyoe7o1_1280.jpg
p819
aVhttp://www.sciencedaily.com/images/logo.gif
p820
aVhttp://www.girlfriendhire.com/pics/t2/580-1.jpg?1349882219
p821
aVhttp://news.bbcimg.co.uk/media/images/59476000/jpg/_59476271_jex_1369611_de27-1.jpg
p822
aVhttp://i3.ytimg.com/vi/2aCOyOvOw5c/mqdefault.jpg
p823
aVhttp://danmaz74.me/wp-content/uploads/2012/09/header-adattato.jpg
p824
aVhttp://img2.blogblog.com/img/icon18_edit_allbkg.gif
p825
aVhttp://gigaom.files.wordpress.com/2010/06/3083210411_d3e9895715.png?w=300
p826
aVhttp://media.tumblr.com/tumblr_lvafid6TsA1qafg0z.png
p827
aVhttp://static.fsf.org/nosvn/associate/fsf-10481.png
p828
aVhttp://media.tumblr.com/tumblr_livaghBrNf1qafg0z.png
p829
aVhttp://media.tumblr.com/tumblr_li3iwsCT9D1qafg0z.png
p830
aVhttp://media.tumblr.com/tumblr_li0czvVUzq1qafg0z.jpg
p831
aVhttp://static.fsf.org/nosvn/associate/fsf-10481.png
p832
aVhttp://4.bp.blogspot.com/_9jz1qeFrzkQ/TIvDPELagcI/AAAAAAAADlg/rlzAv_XepOc/s600/hafiza-durumu.png
p833
aVhttp://lh5.ggpht.com/_9jz1qeFrzkQ/S4olmYIN4PI/AAAAAAAADNc/6RRS-2WcsSg/s800/%20F%C4%B1rat%20%C3%96zg%C3%BCl.jpg
p834
aVhttp://2.bp.blogspot.com/_9jz1qeFrzkQ/S3uzebiXjAI/AAAAAAAADLI/Jqk6Xzp4p6Y/s600/Screen+shot+2010-02-17+at+11.13.49.png
p835
aVhttp://2.bp.blogspot.com/_9jz1qeFrzkQ/SVX6watpaeI/AAAAAAAAA6Q/YuWJZ_sLOBg/s400/IMG_0348.JPG
p836
aVhttps://secure.gravatar.com/blavatar/d7cf67a4d2d80855d0ee8f962d97e0de?s=300
p837
aVhttp://i.tr.eurosport.com/2012/06/27/856792-14516485-128-96.jpg
p838
aVhttp://i.imgur.com/moQXE.jpg
p839
aVhttp://24.media.tumblr.com/tumblr_lsbwvdT91N1qfl54bo1_250.gif
p840
aVhttp://i3.ytimg.com/vi/vUtPGPmZyQU/mqdefault.jpg
p841
aVhttps://www.humblebundle.com/static/hashed/2a05db81aad419de548da4dcf3f6f8f77533ffa9.png
p842
aVhttps://fbcdn-sphotos-f-a.akamaihd.net/hphotos-ak-snc7/306687_10152184446220352_1089225025_n.jpg
p843
aVhttp://www.yenibiris.com/Assets/Images/logo_yb.gif
p844
aVhttp://24.media.tumblr.com/tumblr_mbwarimsWZ1qzgeemo1_500.gif
p845
aVhttp://www.webrazzi.com/wp-content/uploads/2012/10/melek-yatirimcilar-150x136.jpg
p846
aVhttps://fbcdn-sphotos-f-a.akamaihd.net/hphotos-ak-snc7/578557_453998354652991_1196422302_n.jpg
p847
aVhttps://fbcdn-sphotos-a-a.akamaihd.net/hphotos-ak-snc7/302162_534150249933113_53605491_n.jpg
p848
aVhttps://static-secure.guim.co.uk/sys-images/Guardian/Pix/pictures/2012/10/14/1350249873315/Cannabis-006.jpg
p849
aVhttp://sa.bbc.co.uk/bbc/bbc/s?name=SET-COUNTER&app_type=web&ml_name=SSI&ml_version=0.14.2&language=tr-TR&blq_s=3.5&blq_r=3.5&blq_v=worldservice-worldwide
p850
aVhttps://fbcdn-sphotos-g-a.akamaihd.net/hphotos-ak-prn1/75634_3910292551846_1133495185_n.jpg
p851
aVhttp://media.tumblr.com/tumblr_m1n1siFowh1qzid7s.jpg
p852
aVhttp://burak-arikan.com/wp-content/uploads/2012/10/Camiler-Istanbul-Design-Biennale-2012-Burak-Arikan-small.jpg
p853
aVhttp://a.pin13.net/piwik.php?idsite=1
p854
aVhttp://b.scorecardresearch.com/p?c1=2&c2=9053247&cv=2.0&cj=1
p855
aVhttp://upload.wikimedia.org/wikipedia/en/f/f4/Ambox_content.png
p856
aVhttp://www.jetbrains.com/img/logo_bw.gif
p857
aVhttp://i1.ytimg.com/vi/0KJ60uJZ3-Q/mqdefault.jpg
p858
aVhttp://i2.wp.com/kodzilla.files.wordpress.com/2012/07/csharp_film_arama_imdb.png?fit=200%2C200
p859
aVhttp://1.gravatar.com/blavatar/d7cf67a4d2d80855d0ee8f962d97e0de?s=200
p860
aVhttp://1.gravatar.com/blavatar/d7cf67a4d2d80855d0ee8f962d97e0de?s=200
p861
aVhttp://1.gravatar.com/blavatar/d7cf67a4d2d80855d0ee8f962d97e0de?s=200
p862
aVhttp://1.gravatar.com/blavatar/d7cf67a4d2d80855d0ee8f962d97e0de?s=200
p863
aVhttps://fbcdn-profile-a.akamaihd.net/hprofile-ak-ash4/372506_539633862_1326758971_q.jpg
p864
aVhttp://rogerdudler.github.com/git-guide/img/arrow.png
p865
aVhttp://eng.eelcowesemann.nl/wp-includes/images/smilies/icon_smile.gif
p866
aVhttp://www.ntvmsnbc.com/icons/pin.png?1
p867
aVhttp://ozgurturanli.com/wp-content/uploads/2012/10/phorm.png
p868
aVhttp://www.webrazzi.com/wp-content/uploads/2012/10/launchrock-black-typography_2x_1x-150x150.png
p869
aVhttp://i4.ytimg.com/vi/WiYp7-3NDjU/mqdefault.jpg
p870
aVhttp://i1.wp.com/koltukname.files.wordpress.com/2012/10/6a00d8341c69f653ef0147e0512f7f970b-450wi.jpg?fit=200%2C200
p871
aVhttp://beta.eksisozluk.com/content/img/ilogo114.png
p872
aVhttps://fbcdn-sphotos-g-a.akamaihd.net/hphotos-ak-ash4/480510_396007733787965_495666558_n.jpg
p873
aVhttp://www.annenotlari.com/images/logo.gif
p874
aVhttp://blog.guvenatbakan.com/wp-content/themes/dailypost/images/forword.png
p875
aVhttp://www.milliyetsanat.com/allimages/news/181020120959485568435.jpg
p876
aVhttp://i.minus.com/ib2FHnq7IW5kJu.jpg
p877
aVhttp://i.imgur.com/jtzA0.jpg
p878
aVhttp://snmaynard.com/img/me.jpeg
p879
aVhttps://fbcdn-sphotos-b-a.akamaihd.net/hphotos-ak-ash3/557551_401437819910489_1562487952_n.jpg
p880
aVhttp://sa.bbc.co.uk/bbc/bbc/s?name=SET-COUNTER&app_type=web&ml_name=SSI&ml_version=0.14.2&language=tr-TR&blq_s=3.5&blq_r=3.5&blq_v=worldservice-worldwide
p881
aVhttp://i3.ytimg.com/vi/JesB-1nZNtE/mqdefault.jpg
p882
aVhttp://www.rockpapershotgun.com/wp-content/themes/rockpapershotgun/images/featured-block-title-bg.png
p883
aVhttp://cdn.oreilly.com/news/images/printtag.jpg
p884
aVhttp://www.pocto.com/images/pocto300.jpg
p885
aVhttp://beta.eksisozluk.com/content/img/ilogo114.png
p886
aVhttp://i1.ytimg.com/vi/xyXplN23ALM/mqdefault.jpg
p887
aVhttp://beta.eksisozluk.com/content/img/ilogo114.png
p888
aVhttp://www.joelonsoftware.com/i/newdesign-header.jpg
p889
aVhttp://sa.bbc.co.uk/bbc/bbc/s?name=SET-COUNTER&app_type=web&ml_name=SSI&ml_version=0.14.2&language=tr-TR&blq_s=3.5&blq_r=3.5&blq_v=worldservice-worldwide
p890
aVhttp://d.haber3.com/news/981405.jpg
p891
aVhttp://i4.ytimg.com/vi/CHnm1TpO9uE/mqdefault.jpg
p892
aVhttp://www.sshvm.com/images/logo.png
p893
aVhttp://www.medyatutkunu.com/wp-content/uploads/2012/10/medyatutkunulogo.png
p894
aVhttp://www.inc.com/uploaded_files/image/336x336/systrombucket_21141.jpg
p895
aVhttp://www.yunanaitele.com/aycan.jpg
p896
aVhttp://i2.ytimg.com/vi/a_WZeBP0Nnk/mqdefault.jpg
p897
aVhttp://www.hurriyet.com.tr/_np/8989/18188989.jpg
p898
aVhttp://i1.ytimg.com/vi/P-BPmkOSNWE/mqdefault.jpg
p899
aVhttp://i2.ytimg.com/vi/E8_afg5eImQ/mqdefault.jpg
p900
aVhttp://www.netgis.de/atom_gmaps/img/radioaktiv_logo.png
p901
aVhttp://i1.ytimg.com/vi/tjvvILhITZg/mqdefault.jpg
p902
aVhttp://static.fsf.org/nosvn/associate/fsf-10481.png
p903
aVhttp://i2.ytimg.com/vi/aMYYEsKvHvk/mqdefault.jpg
p904
aVhttp://i.sabah.com.tr/sbh/2012/10/20/Haber/755192472411.jpg?11385944415820121020030945
p905
aVhttp://www.foundersatwork.com/uploads/6/5/9/4/65942/5140628.png?419
p906
aVhttp://medya.aksiyon.com.tr/aksiyon/images/logo/logoy.jpg
p907
aVhttp://3.bp.blogspot.com/_fPSqkgrOu6o/TLH7L9vMcyI/AAAAAAAARis/TTnaaILrj84/s72-c/P1010900.JPG
p908
aVhttp://ws.assoc-amazon.com/widgets/q?_encoding=UTF8&ASIN=1449319793&Format=_SL160_&ID=AsinImage&MarketPlace=US&ServiceVersion=20070822&WS=1&tag=theende-20
p909
aVhttp://i3.ytimg.com/vi/ZRGOpDmHFPU/mqdefault.jpg
p910
aVhttp://i1.ytimg.com/vi/Luc894hXAhU/mqdefault.jpg
p911
aVhttps://fbcdn-sphotos-c-a.akamaihd.net/hphotos-ak-prn1/64576_10150249741179981_1320871859_n.jpg
p912
aVhttp://i3.ytimg.com/vi/vE8s0mNEqvY/mqdefault.jpg
p913
aVhttp://beta.eksisozluk.com/content/img/ilogo114.png
p914
aVhttp://i1.ytimg.com/vi/D3jlhwNy8ZA/mqdefault.jpg
p915
aVhttp://variadic.me/favicon.ico
p916
aVhttps://s3.amazonaws.com/objects.artspan.com/member/shannabruschi/500/294320.jpg
p917
aVhttp://i4.ytimg.com/vi/KitcvxK9bzU/mqdefault.jpg
p918
aVhttp://i2.ytimg.com/vi/ID63jr-V-kU/mqdefault.jpg
p919
aVhttp://www.kolektifler.net/_images/haber/icon/AAB255E24B6DF929DED8.jpg
p920
aVhttp://i3.ytimg.com/vi/r8Okis3t2Q8/mqdefault.jpg
p921
aVhttp://i3.ytimg.com/vi/2jpUx3fhhkA/mqdefault.jpg
p922
aVhttp://i2.ytimg.com/vi/1MeCXzlAmNA/mqdefault.jpg
p923
aVhttp://beta.eksisozluk.com/content/img/ilogo114.png
p924
aVhttp://i1.ytimg.com/vi/0cWggYivjh8/mqdefault.jpg
p925
aVhttp://i2.ytimg.com/vi/1TNnkudruig/mqdefault.jpg
p926
aVhttp://i2.ytimg.com/vi/Uxtv-YAn9Rw/mqdefault.jpg
p927
aVhttp://mardukweb.com/image/data/logo.png
p928
aVhttp://i2.ytimg.com/vi/56gov68i63s/mqdefault.jpg
p929
aVhttp://i4.ytimg.com/vi/_HuK44CVneI/mqdefault.jpg
p930
aVhttp://i1.ytimg.com/vi/PVzljDmoPVs/mqdefault.jpg
p931
aVhttp://limk.com/dev/assets/img/limk_og.png
p932
aVhttp://www.ortakvelayet.com/images/cocukbaba1.jpg
p933
aVhttp://i2.ytimg.com/vi/yLsVGwNWOA4/mqdefault.jpg
p934
aVhttp://i1.ytimg.com/vi/4sGTFbGyvmQ/mqdefault.jpg
p935
aVhttp://i2.ytimg.com/vi/MLODhmjwA6Y/mqdefault.jpg
p936
aVhttp://i1.ytimg.com/vi/dssvKz1oaWk/mqdefault.jpg
p937
aVhttp://i4.ytimg.com/vi/_qUPnnROxvY/mqdefault.jpg
p938
aVhttp://i2.ytimg.com/vi/aJyq5v_FZy0/mqdefault.jpg
p939
aVhttp://i2.ytimg.com/vi/UAm_uoV1z5k/mqdefault.jpg
p940
aVhttp://i1.ytimg.com/vi/LGw-Q3Qdads/mqdefault.jpg
p941
aVhttp://i3.ytimg.com/vi/6ctGg_9PwE4/mqdefault.jpg
p942
aVhttp://i1.sndcdn.com/artworks-000023967738-0krppe-t300x300.jpg?2479809
p943
aVhttp://i2.ytimg.com/vi/AZ5WPXxNzPU/mqdefault.jpg
p944
aVhttp://www.burasikapali.com/2012/besiktas-taraftari-belgradda-tarih-yazdi-basin-ne-ise-yarar/
p945
aVhttp://i.imgur.com/tbjli.jpg
p946
aVhttp://i4.ytimg.com/vi/kfL05yTu6LY/mqdefault.jpg
p947
aVhttp://i3.ytimg.com/vi/n295hjktHD0/mqdefault.jpg
p948
aVhttp://cdn1.zumbara.com/media/service/5386/6088/86e3b2173fe55643534b8b3257188c5b9ae07eb7.jpg?c23db35
p949
aVhttp://i.imgur.com/PZY98.jpg
p950
aVhttp://i.radikal.com.tr/480x325/2012/11/16/fft64_mf1204183.Jpeg
p951
aVhttp://images.4chan.org/b/src/1353101680202.gif
p952
aVhttp://i1.ytimg.com/vi/0DyUYWzIbM8/mqdefault.jpg
p953
aVhttp://i1.ytimg.com/vi/L331Kih7yt0/mqdefault.jpg
p954
aVhttp://i3.ytimg.com/vi/nas51x3ZQCg/mqdefault.jpg
p955
aVhttp://i.imgur.com/uTxk0.jpg
p956
aVhttp://vthumb.ak.fbcdn.net/hvthumb-ak-prn1/158830_107760556050981_107741519386218_41103_1103_b.jpg
p957
aVhttp://i4.ytimg.com/vi/cPEEnZDPfwU/mqdefault.jpg
p958
aVhttp://i.radikal.com.tr/480x325/2012/11/17/fft64_mf1204431.Jpeg
p959
aVhttp://i.imgur.com/y4j5E.jpg
p960
aVhttp://i3.ytimg.com/vi/VYCOg-yglNM/mqdefault.jpg
p961
aVhttp://i.imgur.com/kpWwd.jpg
p962
aVhttp://b.vimeocdn.com/ts/370/370/370370151_1280.jpg
p963
aVhttps://i1.ytimg.com/vi/t54eHln-5qg/mqdefault.jpg
p964
aVhttp://i3.ytimg.com/vi/ZAzr2YqG7DM/mqdefault.jpg
p965
aVhttp://i3.ytimg.com/vi/f4xNtVwQHh8/mqdefault.jpg
p966
aVhttp://i2.ytimg.com/vi/1qsgBF7ZIsk/mqdefault.jpg
p967
aVhttp://i1.ytimg.com/vi/8SbUC-UaAxE/mqdefault.jpg
p968
aVhttp://i4.ytimg.com/vi/kYf4kqnAWos/mqdefault.jpg
p969
aVhttp://i.imgur.com/HlY9X.jpg
p970
aVhttp://i2.ytimg.com/vi/QNppCfa_oRs/mqdefault.jpg
p971
aVhttps://www.google.com.tr/textinputassistant/tia.png
p972
aVhttp://i3.ytimg.com/vi/JPHdjvId8nQ/mqdefault.jpg
p973
aVhttp://onedio.com/img/50aa6cdbec70f4d43a000805/800
p974
aVhttp://farm8.staticflickr.com/7186/6867707205_ffc657dfba_m.jpg
p975
aVhttp://www.hurriyet.com.tr/_np/4958/18384958.jpg
p976
aVhttps://i1.ytimg.com/vi/8ClxkrzvEFQ/mqdefault.jpg
p977
aVhttp://i.imgur.com/h1yzq.jpg
p978
aVhttp://www.codinghorror.com/blog/images/coding-horror-official-logo-small.png
p979
aVhttp://www.codinghorror.com/blog/images/coding-horror-official-logo-small.png
p980
aVhttps://fbcdn-sphotos-a-a.akamaihd.net/hphotos-ak-ash3/28037_343158722447949_1699328870_n.jpg
p981
aVhttps://i2.ytimg.com/vi/IJNR2EpS0jw/mqdefault.jpg
p982
aVhttp://blu.stb.s-msn.com/i/4D/25E11B6ECBD64F173605F6CD4C66.jpg
p983
aVhttps://i2.ytimg.com/vi/-quOvwqTkPg/mqdefault.jpg
p984
aVhttp://i2.ytimg.com/vi/AoKwCGqYwSE/mqdefault.jpg
p985
aVhttp://0.gravatar.com/avatar/ad516503a11cd5ca435acc9bb6523536?s=48
p986
aVhttp://1.gravatar.com/avatar/1396112f7db4689ffa5f2595d7b7fccf?s=40&d=identicon&r=G
p987
aVhttp://harry.pythonanywhere.com/static/images/django_pony2.png
p988
aVhttp://d24w6bsrhbeh9d.cloudfront.net/photo/5879996_fbthumbnail.jpg
p989
aVhttp://d24w6bsrhbeh9d.cloudfront.net/photo/5840344_fbthumbnail_v1.jpg
p990
aVhttps://fbcdn-sphotos-c-a.akamaihd.net/hphotos-ak-prn1/559048_135006196649978_34775847_n.jpg
p991
aVhttps://fbcdn-sphotos-d-a.akamaihd.net/hphotos-ak-prn1/601542_135005849983346_1425578039_n.jpg
p992
aVhttps://fbcdn-sphotos-f-a.akamaihd.net/hphotos-ak-ash3/558835_134853786665219_1185828526_n.jpg
p993
aVhttps://fbcdn-sphotos-g-a.akamaihd.net/hphotos-ak-ash4/485070_134810923336172_2044408588_n.jpg
p994
aVhttps://fbcdn-sphotos-a-a.akamaihd.net/hphotos-ak-ash4/302854_134808723336392_581248838_n.jpg
p995
aVhttps://fbcdn-sphotos-c-a.akamaihd.net/hphotos-ak-ash4/382083_134798053337459_472581342_n.jpg
p996
aVhttp://www.djangocanvas.com/site_media/images/logo2.gif
p997
aVhttp://hackershelf.com/media/cache/26/3c/263c1de6eb641688e4124360b1a54ed9.jpg
p998
aVhttp://i1.ytimg.com/vi/xabkJMlW6p0/mqdefault.jpg
p999
aVhttp://www.madewithmarmalade.com/sites/default/files/thumb7.jpg
p1000
aVhttp://i.radikal.com.tr/480x325/2012/11/21/fft64_mf1209713.Jpeg
p1001
aVhttp://i1.ytimg.com/vi/L7llgP3wcq0/mqdefault.jpg
p1002
aVhttp://i.imgur.com/bWx48.jpg
p1003
aVhttp://img.youtube.com/vi/kmeJvkN4ntI/default.jpg
p1004
aVhttp://2.bp.blogspot.com/-PKxJDgnJnzk/UJ-nH4AAejI/AAAAAAAAAZE/k4vVEK6ygoA/s72-c/History-of-Social-Media.jpg
p1005
aVhttp://1.bp.blogspot.com/--UUkJCx8Y7w/UKdUTiAjeII/AAAAAAAAAZ0/WBxhm2qpLx0/s72-c/training-and-development.jpg
p1006
aVhttps://lh3.googleusercontent.com/vpPsX1QEnEPQ47r-njUoFDl2Voe8-s_jjHTWy0DqMaCMqEJvUr8RVG5kbaU8sTCmstV8amogPcGzzcjdwlA9Jt4ZD3JKy_0ZShyypmSRnuLDO1rDOOw
p1007
aVhttps://lh5.googleusercontent.com/FqOtVg0Y4BZkUpShrSu1wFcWannArGxh5edEiR-5YkTQQJbH_wPcaUFB5rb7AgazIxwKBc89hLsxobUZad1lQ9LuznL0eg9F_KXIdAMQEsGxFioDs0o
p1008
aVhttp://i1.ytimg.com/vi/Xo1C6E7jbPw/mqdefault.jpg
p1009
aVhttps://fbcdn-sphotos-h-a.akamaihd.net/hphotos-ak-ash3/546950_10151116953125658_1979160468_n.jpg
p1010
aVhttp://i2.ytimg.com/vi/esRG93YfFm4/mqdefault.jpg
p1011
aVhttp://i2.ytimg.com/vi/QjXJLVINsSA/hqdefault.jpg
p1012
aVhttp://andrewchen.co/wp-content/uploads/2012/09/growthhacker1.png
p1013
aVhttp://i3.ytimg.com/vi/6i2siwz1QM0/mqdefault.jpg
p1014
aVhttp://www.iha.com.tr/Contents//2012/10/27/HaberDetayi/IHA_20121027_244834.jpg
p1015
aVhttp://forgifs.com/gallery/d/206266-1/Kitten-kiss-wakes-dad.gif
p1016
aVhttp://i.imgur.com/OVAvO.jpg
p1017
aVhttp://i2.ytimg.com/vi/5CUYjrTx0lo/mqdefault.jpg
p1018
aVhttp://i1.sndcdn.com/artworks-000034766567-nikbit-t300x300.jpg?afed582
p1019
aVhttp://rubymonk.com/icon-monk.png
p1020
aVhttps://fbcdn-sphotos-g-a.akamaihd.net/hphotos-ak-snc6/8806_466692796707479_1192378331_n.jpg
p1021
aVhttp://i.imgur.com/WT8Cl.png
p1022
aVhttps://hackpad.com/static/img/hackpad-logo.png
p1023
aVhttps://i4.ytimg.com/vi/OrxxHlRs85U/mqdefault.jpg
p1024
aVhttp://img6.mynet.com/ha7/m/mars-koloni.jpg
p1025
aVhttp://i3.ytimg.com/vi/nP7yZ3ckNQg/mqdefault.jpg
p1026
aVhttps://i1.ytimg.com/vi/xjJZ1rRI5vA/mqdefault.jpg
p1027
aVhttp://i1.ytimg.com/vi/pC9FSpaAZqI/mqdefault.jpg
p1028
aVhttps://www.djangoproject.com/m/img/site/hdr_logo.gif
p1029
aVhttp://i.radikal.com.tr/480x325/2012/11/29/fft64_mf1220050.Jpeg
p1030
aVhttp://arxiv.org/icons/cu/cul_signature_unstyled.gif
p1031
aVhttp://i2.wp.com/www.lifehack.org/wp-content/files/2012/11/vitamin_mineral_inforgraphic3-011.png?fit=400%2C400
p1032
aVhttp://i2.ytimg.com/vi/E8-bMgDANEk/mqdefault.jpg
p1033
aVhttp://img.gawkerassets.com/img/186i50gthl3xcjpg/fb.jpg
p1034
aVhttp://i2.ytimg.com/vi/IVHamR872JM/mqdefault.jpg
p1035
aVhttp://24.media.tumblr.com/tumblr_me80kj2wU81rlm0igo1_250.png
p1036
aVhttp://i2.ytimg.com/vi/MUnhQOZcqE0/mqdefault.jpg
p1037
aVhttp://i2.ytimg.com/vi/5ex5AcE5Cho/mqdefault.jpg
p1038
aVhttp://i4.ytimg.com/vi/O0NN4D2j5k4/mqdefault.jpg
p1039
aVhttp://4.bp.blogspot.com/-pTISn-XpSxY/UAHxXfQNf8I/AAAAAAAADDo/WOPbhveusds/s72-c/mile_high_club_2.jpg
p1040
aVhttp://git.savannah.gnu.org/cgit/cgit.png
p1041
aVhttp://i2.wp.com/sosyalmekan.files.wordpress.com/2012/11/mg_8963-1.jpg?fit=400%2C400
p1042
aVhttp://i3.ytimg.com/vi/2sVoNtdT6zQ/mqdefault.jpg
p1043
aVhttp://i2.ytimg.com/vi/1lyu1KKwC74/mqdefault.jpg
p1044
aVhttp://i2.ytimg.com/vi/yr6dTtZ00So/mqdefault.jpg
p1045
aVhttps://lh3.googleusercontent.com/-peZmSon3IJQ/AAAAAAAAAAI/AAAAAAAAC3g/wRU2hd6ze0w/s250-c-k/photo.jpg
p1046
aVhttps://i1.ytimg.com/vi/lD9FAOPBiDk/mqdefault.jpg
p1047
aVhttp://i4.ytimg.com/vi/k1uUIJPD0Nk/mqdefault.jpg
p1048
aVhttp://i1.wp.com/pandodaily.files.wordpress.com/2012/10/6472088845_54199ba78a_b.jpg?fit=400%2C400
p1049
aVhttp://i0.wp.com/pandodaily.files.wordpress.com/2012/11/bustcards-01.jpg?fit=400%2C400
p1050
aVhttps://i3.ytimg.com/vi/zROf1qDoDjw/mqdefault.jpg
p1051
aVhttp://haber.sol.org.tr/sites/default/files/images/firattanisic_0.jpg
p1052
aVhttp://i2.ytimg.com/vi/mL4CB4SZieo/mqdefault.jpg
p1053
aVhttp://i.imgur.com/oOyF5.gif
p1054
aVhttp://i3.ytimg.com/vi/2yj0e0r_yLI/mqdefault.jpg
p1055
aVhttps://i2.ytimg.com/vi/UFy_IK2R5F4/mqdefault.jpg
p1056
aVhttp://www.webrazzi.com/wp-content/uploads/2012/12/kapattik-150x150.jpg
p1057
aVhttp://designshack.net/wp-content/uploads/focalpoint-7.jpg
p1058
aVhttp://i0.wp.com/complextosimple.files.wordpress.com/2012/12/gun_thumb.jpg?fit=400%2C400
p1059
aVhttp://cdn1.cnnturk.com/handlers/file.ashx?FileID=656541&Width=120&Height=120&BlackWhite=False
p1060
aVhttp://i.imgur.com/lIPcH.png
p1061
aVhttp://cdncms.zaman.com.tr/2012/12/05/oruc.jpg
p1062
aVhttp://static1.businessinsider.com/image/50be54816bb3f7b63e000003/college-humor-just-destroyed-instagram-in-3-minutes.jpg
p1063
aVhttp://i.imgur.com/loB0s.png
p1064
aVhttp://i02so.timsah.com/videos/350/CT0VPFQcWHF/1_150.jpg
p1065
aVhttp://4.asset.soup.io/asset/3915/4164_ac18_400.gif
p1066
aVhttp://i1.ytimg.com/vi/hAyuPXrAbak/mqdefault.jpg
p1067
aVhttp://i2.ytimg.com/vi/MiCELNkJvYQ/mqdefault.jpg
p1068
aVhttp://s3-ak.buzzfeed.com/static/campaign_images/webdr02/2012/12/7/11/googles-lost-social-network-1-9840-1354898244-21_big.jpg
p1069
aVhttp://d.asset.soup.io/asset/3934/7037_fab9.gif
p1070
aVhttp://i3.ytimg.com/vi/Bq-NLUFCsk0/mqdefault.jpg
p1071
aVhttp://www.cumhuriyetspor.com.tr/code/images/logo.jpg
p1072
aVhttp://i.imgur.com/uwuzZ.jpg
p1073
aVhttp://photos.foter.com/29/why-didnt-you-call-me_l.jpg
p1074
aVhttp://i2.ytimg.com/vi/IV6gEA4Go3A/mqdefault.jpg
p1075
aVhttp://i3.ytimg.com/vi/vUSzL2leaFM/mqdefault.jpg
p1076
aVhttp://i3.ytimg.com/vi/nVYFOlVB-Uo/mqdefault.jpg
p1077
aVhttp://chrisrowe.net/static/images/avatar.jpg
p1078
aVhttp://i2.ytimg.com/vi/Em5vtWkoLKE/mqdefault.jpg
p1079
aVhttps://i4.ytimg.com/vi/cQcE4_7-X78/mqdefault.jpg
p1080
aVhttp://i.radikal.com.tr/480x325/2012/12/11/fft64_mf1235888.Jpeg
p1081
aVhttp://maxcdn.webappers.com/img/2012/04/shopify.jpg
p1082
aVhttp://blog.guvenatbakan.com/wp-content/themes/dailypost/images/forword.png
p1083
aVhttp://sinavsorusu.org/theme/images/serv2.png
p1084
aVhttp://i2.ytimg.com/vi/Elc0oThyV3Q/mqdefault.jpg
p1085
aVhttp://i3.ytimg.com/vi/nVkDfnGobmI/mqdefault.jpg
p1086
aVhttp://www.kliknete.com/wp-content/themes/klik/images/logo.png
p1087
aVhttp://i1.ytimg.com/vi/PN-MjUC4f9k/mqdefault.jpg
p1088
aVhttp://www.yenibiris.com/Assets/Images/logo_yb.gif
p1089
aVhttp://imgix.8tracks.com/mix_covers/000/826/968/99084.original.JPG?fm=jpg&q=65&sharp=15&vib=10&w=500&h=500&fit=crop
p1090
aVhttp://i3.ytimg.com/vi/Beo_jHowU-I/mqdefault.jpg
p1091
aVhttp://i1.ytimg.com/vi/P_4uhY6i7zY/mqdefault.jpg
p1092
aVhttps://fbcdn-sphotos-g-a.akamaihd.net/hphotos-ak-snc6/222267_141771292640135_1381370820_n.jpg
p1093
aVhttp://i2.ytimg.com/vi/APWhx97QvxE/mqdefault.jpg
p1094
aVhttp://i4.ytimg.com/vi/7QlWpv958Uk/mqdefault.jpg
p1095
aVhttp://i.imgur.com/AFe0a.png
p1096
aVhttp://i.imgur.com/CUrQ0.png
p1097
aVhttp://i1.ytimg.com/vi/8v6Gc7roJ6g/mqdefault.jpg
p1098
aVhttp://media.ch9.ms/ch9/f63b/9147d5db-4d00-4b4c-abdd-8d6e177bf63b/Exam480Mod4Part1_512.jpg
p1099
aVhttp://i2.ytimg.com/vi/acNCrKUusUs/mqdefault.jpg
p1100
aVhttp://i2.ytimg.com/vi/IUgQnEyXGiA/mqdefault.jpg
p1101
aVhttp://zef.me/wp-content/uploads/2012/12/Battle-of-Tewkesbury.jpg
p1102
aVhttp://www.dom111.co.uk/blog/wp-content/themes/twentyeleven/images/headers/wheel.jpg
p1103
aVhttp://boronine.com/img/monkeys.jpg
p1104
aVhttp://www.brython.info/brython.png
p1105
aVhttps://i4.ytimg.com/vi/cd66drsWWFo/mqdefault.jpg
p1106
aVhttp://i1.wp.com/jeremykun.files.wordpress.com/2012/07/tumblr_lwn6qu5g4n1qgutswo1_400.jpg?fit=400%2C400
p1107
aVhttp://cdncms.zaman.com.tr/2012/12/16/icki.jpg
p1108
aVhttp://www.privacysurgeon.org/blog/wp-content/uploads/2012/07/logo.png
p1109
aVhttp://i.radikal.com.tr/480x325/2012/12/17/fft64_mf1244179.Jpeg
p1110
aVhttps://i1.ytimg.com/vi/PoTEnaAI9Fo/mqdefault.jpg
p1111
aVhttp://i2.ytimg.com/vi/-muFbgY3Iqw/mqdefault.jpg
p1112
aVhttp://i4.ytimg.com/vi/w3LZQLkGsSY/mqdefault.jpg
p1113
aVhttps://i1.ytimg.com/vi/4jRJ4itAQwo/mqdefault.jpg
p1114
aVhttp://dl.dropbox.com/u/4429200/blog/oop-obj-mikhail.png
p1115
aVhttp://25.media.tumblr.com/avatar_89e20f5fa783_16.png
p1116
aVhttp://i.radikal.com.tr/480x325/2012/12/19/fft64_mf1247591.Jpeg
p1117
aVhttp://i4.ytimg.com/vi/7X5wdwlVpK0/mqdefault.jpg
p1118
aVhttp://birdirbir.org/wp-content/themes/twentyeleven/../salala/images/birdirbirorg.jpg
p1119
aVhttp://1.gravatar.com/avatar/18dc5791826756ab6b22beb27ff2f92f?s=70&d=retro&r=G
p1120
aVhttps://i4.ytimg.com/vi/w-llZmPPNwU/mqdefault.jpg
p1121
aVhttp://qt.digia.com/Global/Images/Qt/Qt5--one-framework-to-rule-them-all.png
p1122
a.